

Microchip MPLAB XC8 Assembler V2.10 build 88905656 
                                                                                               Tue Oct 03 13:44:27 2023

Microchip MPLAB XC8 C Compiler v2.10 (Free license) build 20190730164152 Og1 
     1                           	processor	16F877A
     2                           	opt	pw 120
     3                           	opt	flic
     4                           	psect	idataCOMMON,global,class=CODE,delta=2
     5                           	psect	idataBANK0,global,class=CODE,delta=2
     6                           	psect	strings,global,class=STRING,delta=2
     7                           	psect	stringtext,global,reloc=256,class=STRCODE,delta=2
     8                           	psect	cinit,global,class=CODE,merge=1,delta=2
     9                           	psect	bssCOMMON,global,class=COMMON,space=1,delta=1
    10                           	psect	dataCOMMON,global,class=COMMON,space=1,delta=1
    11                           	psect	bssBANK0,global,class=BANK0,space=1,delta=1
    12                           	psect	dataBANK0,global,class=BANK0,space=1,delta=1
    13                           	psect	cstackCOMMON,global,class=COMMON,space=1,delta=1
    14                           	psect	cstackBANK0,global,class=BANK0,space=1,delta=1
    15                           	psect	maintext,global,class=CODE,split=1,delta=2
    16                           	psect	text1,local,class=CODE,merge=1,delta=2
    17                           	psect	text2,local,class=CODE,merge=1,delta=2
    18                           	psect	text3,local,class=CODE,merge=1,delta=2
    19                           	psect	text4,local,class=CODE,merge=1,delta=2
    20                           	psect	text5,local,class=CODE,merge=1,delta=2
    21                           	psect	text6,local,class=CODE,merge=1,delta=2,group=1
    22                           	psect	text7,local,class=CODE,merge=1,delta=2,group=1
    23                           	psect	text8,local,class=CODE,merge=1,delta=2,group=1
    24                           	psect	text9,local,class=CODE,merge=1,delta=2
    25                           	psect	text10,local,class=CODE,merge=1,delta=2
    26                           	psect	text11,local,class=CODE,merge=1,delta=2
    27                           	psect	text12,local,class=CODE,merge=1,delta=2
    28                           	psect	text13,local,class=CODE,merge=1,delta=2
    29                           	psect	text14,local,class=CODE,merge=1,delta=2
    30                           	psect	text15,local,class=CODE,merge=1,delta=2
    31                           	psect	text16,local,class=CODE,merge=1,delta=2
    32                           	psect	text17,local,class=CODE,merge=1,delta=2
    33                           	psect	text18,local,class=CODE,merge=1,delta=2
    34                           	psect	text19,local,class=CODE,merge=1,delta=2
    35                           	psect	text20,local,class=CODE,merge=1,delta=2
    36                           	psect	text21,local,class=CODE,merge=1,delta=2
    37                           	psect	intentry,global,class=CODE,delta=2
    38                           	dabs	1,0x7E,2
    39  0000                     
    40                           ; Version 2.10
    41                           ; Generated 31/07/2019 GMT
    42                           ; 
    43                           ; Copyright © 2019, Microchip Technology Inc. and its subsidiaries ("Microchip")
    44                           ; All rights reserved.
    45                           ; 
    46                           ; This software is developed by Microchip Technology Inc. and its subsidiaries ("Microch
      +                          ip").
    47                           ; 
    48                           ; Redistribution and use in source and binary forms, with or without modification, are
    49                           ; permitted provided that the following conditions are met:
    50                           ; 
    51                           ;     1. Redistributions of source code must retain the above copyright notice, this lis
      +                          t of
    52                           ;        conditions and the following disclaimer.
    53                           ; 
    54                           ;     2. Redistributions in binary form must reproduce the above copyright notice, this 
      +                          list
    55                           ;        of conditions and the following disclaimer in the documentation and/or other
    56                           ;        materials provided with the distribution.
    57                           ; 
    58                           ;     3. Microchip's name may not be used to endorse or promote products derived from th
      +                          is
    59                           ;        software without specific prior written permission.
    60                           ; 
    61                           ; THIS SOFTWARE IS PROVIDED BY MICROCHIP "AS IS" AND ANY EXPRESS OR IMPLIED WARRANTIES,
    62                           ; INCLUDING, BUT NOT LIMITED TO, THE IMPLIED WARRANTIES OF MERCHANTABILITY AND FITNESS F
      +                          OR
    63                           ; PURPOSE ARE DISCLAIMED.  IN NO EVENT SHALL MICROCHIP BE LIABLE FOR ANY DIRECT, INDIREC
      +                          T,
    64                           ; INCIDENTAL, SPECIAL, EXEMPLARY, OR CONSEQUENTIAL DAMAGES (INCLUDING BUT NOT LIMITED TO
    65                           ; PROCUREMENT OF SUBSTITUTE GOODS OR SERVICES; LOSS OF USE, DATA OR PROFITS; OR BUSINESS
    66                           ; INTERRUPTION) HOWSOEVER CAUSED AND ON ANY THEORY OF LIABILITY, WHETHER IN CONTRACT, ST
      +                          RICT
    67                           ; LIABILITY, OR TORT (INCLUDING NEGLIGENCE OR OTHERWISE) ARISING IN ANY WAY OUT OF THE U
      +                          SE OF
    68                           ; THIS SOFTWARE, EVEN IF ADVISED OF THE POSSIBILITY OF SUCH DAMAGE.
    69                           ; 
    70                           ; 
    71                           ; Code-generator required, PIC16F877A Definitions
    72                           ; 
    73                           ; SFR Addresses
    74  0000                     	;# 
    75  0001                     	;# 
    76  0002                     	;# 
    77  0003                     	;# 
    78  0004                     	;# 
    79  0005                     	;# 
    80  0006                     	;# 
    81  0007                     	;# 
    82  0008                     	;# 
    83  0009                     	;# 
    84  000A                     	;# 
    85  000B                     	;# 
    86  000C                     	;# 
    87  000D                     	;# 
    88  000E                     	;# 
    89  000E                     	;# 
    90  000F                     	;# 
    91  0010                     	;# 
    92  0011                     	;# 
    93  0012                     	;# 
    94  0013                     	;# 
    95  0014                     	;# 
    96  0015                     	;# 
    97  0015                     	;# 
    98  0016                     	;# 
    99  0017                     	;# 
   100  0018                     	;# 
   101  0019                     	;# 
   102  001A                     	;# 
   103  001B                     	;# 
   104  001B                     	;# 
   105  001C                     	;# 
   106  001D                     	;# 
   107  001E                     	;# 
   108  001F                     	;# 
   109  0081                     	;# 
   110  0085                     	;# 
   111  0086                     	;# 
   112  0087                     	;# 
   113  0088                     	;# 
   114  0089                     	;# 
   115  008C                     	;# 
   116  008D                     	;# 
   117  008E                     	;# 
   118  0091                     	;# 
   119  0092                     	;# 
   120  0093                     	;# 
   121  0094                     	;# 
   122  0098                     	;# 
   123  0099                     	;# 
   124  009C                     	;# 
   125  009D                     	;# 
   126  009E                     	;# 
   127  009F                     	;# 
   128  010C                     	;# 
   129  010D                     	;# 
   130  010E                     	;# 
   131  010F                     	;# 
   132  018C                     	;# 
   133  018D                     	;# 
   134  0000                     	;# 
   135  0001                     	;# 
   136  0002                     	;# 
   137  0003                     	;# 
   138  0004                     	;# 
   139  0005                     	;# 
   140  0006                     	;# 
   141  0007                     	;# 
   142  0008                     	;# 
   143  0009                     	;# 
   144  000A                     	;# 
   145  000B                     	;# 
   146  000C                     	;# 
   147  000D                     	;# 
   148  000E                     	;# 
   149  000E                     	;# 
   150  000F                     	;# 
   151  0010                     	;# 
   152  0011                     	;# 
   153  0012                     	;# 
   154  0013                     	;# 
   155  0014                     	;# 
   156  0015                     	;# 
   157  0015                     	;# 
   158  0016                     	;# 
   159  0017                     	;# 
   160  0018                     	;# 
   161  0019                     	;# 
   162  001A                     	;# 
   163  001B                     	;# 
   164  001B                     	;# 
   165  001C                     	;# 
   166  001D                     	;# 
   167  001E                     	;# 
   168  001F                     	;# 
   169  0081                     	;# 
   170  0085                     	;# 
   171  0086                     	;# 
   172  0087                     	;# 
   173  0088                     	;# 
   174  0089                     	;# 
   175  008C                     	;# 
   176  008D                     	;# 
   177  008E                     	;# 
   178  0091                     	;# 
   179  0092                     	;# 
   180  0093                     	;# 
   181  0094                     	;# 
   182  0098                     	;# 
   183  0099                     	;# 
   184  009C                     	;# 
   185  009D                     	;# 
   186  009E                     	;# 
   187  009F                     	;# 
   188  010C                     	;# 
   189  010D                     	;# 
   190  010E                     	;# 
   191  010F                     	;# 
   192  018C                     	;# 
   193  018D                     	;# 
   194  0000                     	;# 
   195  0001                     	;# 
   196  0002                     	;# 
   197  0003                     	;# 
   198  0004                     	;# 
   199  0005                     	;# 
   200  0006                     	;# 
   201  0007                     	;# 
   202  0008                     	;# 
   203  0009                     	;# 
   204  000A                     	;# 
   205  000B                     	;# 
   206  000C                     	;# 
   207  000D                     	;# 
   208  000E                     	;# 
   209  000E                     	;# 
   210  000F                     	;# 
   211  0010                     	;# 
   212  0011                     	;# 
   213  0012                     	;# 
   214  0013                     	;# 
   215  0014                     	;# 
   216  0015                     	;# 
   217  0015                     	;# 
   218  0016                     	;# 
   219  0017                     	;# 
   220  0018                     	;# 
   221  0019                     	;# 
   222  001A                     	;# 
   223  001B                     	;# 
   224  001B                     	;# 
   225  001C                     	;# 
   226  001D                     	;# 
   227  001E                     	;# 
   228  001F                     	;# 
   229  0081                     	;# 
   230  0085                     	;# 
   231  0086                     	;# 
   232  0087                     	;# 
   233  0088                     	;# 
   234  0089                     	;# 
   235  008C                     	;# 
   236  008D                     	;# 
   237  008E                     	;# 
   238  0091                     	;# 
   239  0092                     	;# 
   240  0093                     	;# 
   241  0094                     	;# 
   242  0098                     	;# 
   243  0099                     	;# 
   244  009C                     	;# 
   245  009D                     	;# 
   246  009E                     	;# 
   247  009F                     	;# 
   248  010C                     	;# 
   249  010D                     	;# 
   250  010E                     	;# 
   251  010F                     	;# 
   252  018C                     	;# 
   253  018D                     	;# 
   254  0000                     	;# 
   255  0001                     	;# 
   256  0002                     	;# 
   257  0003                     	;# 
   258  0004                     	;# 
   259  0005                     	;# 
   260  0006                     	;# 
   261  0007                     	;# 
   262  0008                     	;# 
   263  0009                     	;# 
   264  000A                     	;# 
   265  000B                     	;# 
   266  000C                     	;# 
   267  000D                     	;# 
   268  000E                     	;# 
   269  000E                     	;# 
   270  000F                     	;# 
   271  0010                     	;# 
   272  0011                     	;# 
   273  0012                     	;# 
   274  0013                     	;# 
   275  0014                     	;# 
   276  0015                     	;# 
   277  0015                     	;# 
   278  0016                     	;# 
   279  0017                     	;# 
   280  0018                     	;# 
   281  0019                     	;# 
   282  001A                     	;# 
   283  001B                     	;# 
   284  001B                     	;# 
   285  001C                     	;# 
   286  001D                     	;# 
   287  001E                     	;# 
   288  001F                     	;# 
   289  0081                     	;# 
   290  0085                     	;# 
   291  0086                     	;# 
   292  0087                     	;# 
   293  0088                     	;# 
   294  0089                     	;# 
   295  008C                     	;# 
   296  008D                     	;# 
   297  008E                     	;# 
   298  0091                     	;# 
   299  0092                     	;# 
   300  0093                     	;# 
   301  0094                     	;# 
   302  0098                     	;# 
   303  0099                     	;# 
   304  009C                     	;# 
   305  009D                     	;# 
   306  009E                     	;# 
   307  009F                     	;# 
   308  010C                     	;# 
   309  010D                     	;# 
   310  010E                     	;# 
   311  010F                     	;# 
   312  018C                     	;# 
   313  018D                     	;# 
   314  0000                     	;# 
   315  0001                     	;# 
   316  0002                     	;# 
   317  0003                     	;# 
   318  0004                     	;# 
   319  0005                     	;# 
   320  0006                     	;# 
   321  0007                     	;# 
   322  0008                     	;# 
   323  0009                     	;# 
   324  000A                     	;# 
   325  000B                     	;# 
   326  000C                     	;# 
   327  000D                     	;# 
   328  000E                     	;# 
   329  000E                     	;# 
   330  000F                     	;# 
   331  0010                     	;# 
   332  0011                     	;# 
   333  0012                     	;# 
   334  0013                     	;# 
   335  0014                     	;# 
   336  0015                     	;# 
   337  0015                     	;# 
   338  0016                     	;# 
   339  0017                     	;# 
   340  0018                     	;# 
   341  0019                     	;# 
   342  001A                     	;# 
   343  001B                     	;# 
   344  001B                     	;# 
   345  001C                     	;# 
   346  001D                     	;# 
   347  001E                     	;# 
   348  001F                     	;# 
   349  0081                     	;# 
   350  0085                     	;# 
   351  0086                     	;# 
   352  0087                     	;# 
   353  0088                     	;# 
   354  0089                     	;# 
   355  008C                     	;# 
   356  008D                     	;# 
   357  008E                     	;# 
   358  0091                     	;# 
   359  0092                     	;# 
   360  0093                     	;# 
   361  0094                     	;# 
   362  0098                     	;# 
   363  0099                     	;# 
   364  009C                     	;# 
   365  009D                     	;# 
   366  009E                     	;# 
   367  009F                     	;# 
   368  010C                     	;# 
   369  010D                     	;# 
   370  010E                     	;# 
   371  010F                     	;# 
   372  018C                     	;# 
   373  018D                     	;# 
   374  0000                     	;# 
   375  0001                     	;# 
   376  0002                     	;# 
   377  0003                     	;# 
   378  0004                     	;# 
   379  0005                     	;# 
   380  0006                     	;# 
   381  0007                     	;# 
   382  0008                     	;# 
   383  0009                     	;# 
   384  000A                     	;# 
   385  000B                     	;# 
   386  000C                     	;# 
   387  000D                     	;# 
   388  000E                     	;# 
   389  000E                     	;# 
   390  000F                     	;# 
   391  0010                     	;# 
   392  0011                     	;# 
   393  0012                     	;# 
   394  0013                     	;# 
   395  0014                     	;# 
   396  0015                     	;# 
   397  0015                     	;# 
   398  0016                     	;# 
   399  0017                     	;# 
   400  0018                     	;# 
   401  0019                     	;# 
   402  001A                     	;# 
   403  001B                     	;# 
   404  001B                     	;# 
   405  001C                     	;# 
   406  001D                     	;# 
   407  001E                     	;# 
   408  001F                     	;# 
   409  0081                     	;# 
   410  0085                     	;# 
   411  0086                     	;# 
   412  0087                     	;# 
   413  0088                     	;# 
   414  0089                     	;# 
   415  008C                     	;# 
   416  008D                     	;# 
   417  008E                     	;# 
   418  0091                     	;# 
   419  0092                     	;# 
   420  0093                     	;# 
   421  0094                     	;# 
   422  0098                     	;# 
   423  0099                     	;# 
   424  009C                     	;# 
   425  009D                     	;# 
   426  009E                     	;# 
   427  009F                     	;# 
   428  010C                     	;# 
   429  010D                     	;# 
   430  010E                     	;# 
   431  010F                     	;# 
   432  018C                     	;# 
   433  018D                     	;# 
   434                           
   435                           	psect	idataCOMMON
   436  05FB                     __pidataCOMMON:	
   437                           
   438                           ;initializer for read_matrix_keypad@once
   439  05FB  3401               	retlw	1
   440                           
   441                           	psect	idataBANK0
   442  05F9                     __pidataBANK0:	
   443                           
   444                           ;initializer for _operation_flag
   445  05F9  3401               	retlw	1
   446  05FA  3400               	retlw	0
   447  0008                     _PORTD	set	8
   448  0061                     _TMR2IF	set	97
   449  0091                     _T2CKPS1	set	145
   450  0090                     _T2CKPS0	set	144
   451  0032                     _RB2	set	50
   452  0031                     _RB1	set	49
   453  0030                     _RB0	set	48
   454  0040                     _RD0	set	64
   455  0041                     _RD1	set	65
   456  0042                     _RD2	set	66
   457  0043                     _RD3	set	67
   458  0049                     _RE1	set	73
   459  004A                     _RE2	set	74
   460  0092                     _TMR2ON	set	146
   461  0033                     _RB3	set	51
   462  0039                     _RC1	set	57
   463  005F                     _GIE	set	95
   464  005E                     _PEIE	set	94
   465  003A                     _RC2	set	58
   466  0092                     _PR2	set	146
   467  0086                     _TRISB	set	134
   468  0088                     _TRISD	set	136
   469  0461                     _TMR2IE	set	1121
   470  040F                     _nRBPU	set	1039
   471  0449                     _TRISE1	set	1097
   472  044A                     _TRISE2	set	1098
   473  0433                     _TRISB3	set	1075
   474  0439                     _TRISC1	set	1081
   475  043A                     _TRISC2	set	1082
   476                           
   477                           	psect	strings
   478  0800                     __pstrings:	
   479  0800                     stringtab:	
   480  0800                     __stringtab:	
   481                           
   482                           ;	String table - string pointers are 2 bytes each
   483  0800  1BFF               	btfsc	btemp+1,7
   484  0801  280A               	ljmp	stringcode
   485  0802  1383               	bcf	3,7
   486  0803  187F               	btfsc	btemp+1,0
   487  0804  1783               	bsf	3,7
   488  0805  0800               	movf	0,w
   489  0806  0A84               	incf	4,f
   490  0807  1903               	skipnz
   491  0808  0AFF               	incf	btemp+1,f
   492  0809  0008               	return
   493  080A                     stringcode:	
   494  080A  087F               	movf	btemp+1,w
   495  080B  397F               	andlw	127
   496  080C  008A               	movwf	10
   497  080D  0804               	movf	4,w
   498  080E  0A84               	incf	4,f
   499  080F  1903               	skipnz
   500  0810  0AFF               	incf	btemp+1,f
   501  0811  0082               	movwf	2
   502  0812                     __stringbase:	
   503  0812                     __end_of__stringtab:	
   504                           
   505                           	psect	stringtext
   506  0600                     __pstringtext:	
   507  0600                     STR_19:	
   508  0600  3420               	retlw	32	;' '
   509  0601  3420               	retlw	32	;' '
   510  0602  3454               	retlw	84	;'T'
   511  0603  3465               	retlw	101	;'e'
   512  0604  346D               	retlw	109	;'m'
   513  0605  3470               	retlw	112	;'p'
   514  0606  342E               	retlw	46	;'.'
   515  0607  3420               	retlw	32	;' '
   516  0608  3449               	retlw	73	;'I'
   517  0609  346E               	retlw	110	;'n'
   518  060A  3476               	retlw	118	;'v'
   519  060B  3461               	retlw	97	;'a'
   520  060C  346C               	retlw	108	;'l'
   521  060D  3469               	retlw	105	;'i'
   522  060E  3464               	retlw	100	;'d'
   523  060F  3420               	retlw	32	;' '
   524  0610  3420               	retlw	32	;' '
   525  0611  3400               	retlw	0
   526  0612                     STR_22:	
   527  0612  3420               	retlw	32	;' '
   528  0613  3420               	retlw	32	;' '
   529  0614  3453               	retlw	83	;'S'
   530  0615  3465               	retlw	101	;'e'
   531  0616  3474               	retlw	116	;'t'
   532  0617  3420               	retlw	32	;' '
   533  0618  3474               	retlw	116	;'t'
   534  0619  3468               	retlw	104	;'h'
   535  061A  3465               	retlw	101	;'e'
   536  061B  3420               	retlw	32	;' '
   537  061C  3454               	retlw	84	;'T'
   538  061D  3469               	retlw	105	;'i'
   539  061E  346D               	retlw	109	;'m'
   540  061F  3465               	retlw	101	;'e'
   541  0620  3420               	retlw	32	;' '
   542  0621  3420               	retlw	32	;' '
   543  0622  3400               	retlw	0
   544  0623                     STR_17:	
   545  0623  3428               	retlw	40	;'('
   546  0624  344C               	retlw	76	;'L'
   547  0625  3449               	retlw	73	;'I'
   548  0626  344D               	retlw	77	;'M'
   549  0627  3449               	retlw	73	;'I'
   550  0628  3454               	retlw	84	;'T'
   551  0629  3420               	retlw	32	;' '
   552  062A  343A               	retlw	58	;':'
   553  062B  3420               	retlw	32	;' '
   554  062C  3431               	retlw	49	;'1'
   555  062D  3438               	retlw	56	;'8'
   556  062E  3430               	retlw	48	;'0'
   557  062F  3420               	retlw	32	;' '
   558  0630  3443               	retlw	67	;'C'
   559  0631  3429               	retlw	41	;')'
   560  0632  3420               	retlw	32	;' '
   561  0633  3400               	retlw	0
   562  0634                     STR_10:	
   563  0634  3420               	retlw	32	;' '
   564  0635  344D               	retlw	77	;'M'
   565  0636  3469               	retlw	105	;'i'
   566  0637  3463               	retlw	99	;'c'
   567  0638  3472               	retlw	114	;'r'
   568  0639  346F               	retlw	111	;'o'
   569  063A  3477               	retlw	119	;'w'
   570  063B  3461               	retlw	97	;'a'
   571  063C  3476               	retlw	118	;'v'
   572  063D  3465               	retlw	101	;'e'
   573  063E  3420               	retlw	32	;' '
   574  063F  344F               	retlw	79	;'O'
   575  0640  3476               	retlw	118	;'v'
   576  0641  3465               	retlw	101	;'e'
   577  0642  346E               	retlw	110	;'n'
   578  0643  3420               	retlw	32	;' '
   579  0644  3400               	retlw	0
   580  0645                     STR_24:	
   581  0645  3453               	retlw	83	;'S'
   582  0646  3445               	retlw	69	;'E'
   583  0647  3454               	retlw	84	;'T'
   584  0648  3420               	retlw	32	;' '
   585  0649  3454               	retlw	84	;'T'
   586  064A  3449               	retlw	73	;'I'
   587  064B  344D               	retlw	77	;'M'
   588  064C  3445               	retlw	69	;'E'
   589  064D  3420               	retlw	32	;' '
   590  064E  3428               	retlw	40	;'('
   591  064F  344D               	retlw	77	;'M'
   592  0650  344D               	retlw	77	;'M'
   593  0651  343A               	retlw	58	;':'
   594  0652  3453               	retlw	83	;'S'
   595  0653  3453               	retlw	83	;'S'
   596  0654  3429               	retlw	41	;')'
   597  0655  3400               	retlw	0
   598  0656                     STR_18:	
   599  0656  342A               	retlw	42	;'*'
   600  0657  343A               	retlw	58	;':'
   601  0658  3443               	retlw	67	;'C'
   602  0659  344C               	retlw	76	;'L'
   603  065A  3445               	retlw	69	;'E'
   604  065B  3441               	retlw	65	;'A'
   605  065C  3452               	retlw	82	;'R'
   606  065D  3420               	retlw	32	;' '
   607  065E  3420               	retlw	32	;' '
   608  065F  3423               	retlw	35	;'#'
   609  0660  343A               	retlw	58	;':'
   610  0661  3445               	retlw	69	;'E'
   611  0662  344E               	retlw	78	;'N'
   612  0663  3454               	retlw	84	;'T'
   613  0664  3445               	retlw	69	;'E'
   614  0665  3452               	retlw	82	;'R'
   615  0666  3400               	retlw	0
   616  0667                     STR_9:	
   617  0667  3420               	retlw	32	;' '
   618  0668  3420               	retlw	32	;' '
   619  0669  3450               	retlw	80	;'P'
   620  066A  346F               	retlw	111	;'o'
   621  066B  3477               	retlw	119	;'w'
   622  066C  3465               	retlw	101	;'e'
   623  066D  3472               	retlw	114	;'r'
   624  066E  3469               	retlw	105	;'i'
   625  066F  346E               	retlw	110	;'n'
   626  0670  3467               	retlw	103	;'g'
   627  0671  3420               	retlw	32	;' '
   628  0672  344F               	retlw	79	;'O'
   629  0673  344E               	retlw	78	;'N'
   630  0674  3420               	retlw	32	;' '
   631  0675  3420               	retlw	32	;' '
   632  0676  3400               	retlw	0
   633  0677                     STR_20:	
   634  0677  3420               	retlw	32	;' '
   635  0678  3420               	retlw	32	;' '
   636  0679  3450               	retlw	80	;'P'
   637  067A  3472               	retlw	114	;'r'
   638  067B  3465               	retlw	101	;'e'
   639  067C  342D               	retlw	45	;'-'
   640  067D  3448               	retlw	72	;'H'
   641  067E  3465               	retlw	101	;'e'
   642  067F  3461               	retlw	97	;'a'
   643  0680  3474               	retlw	116	;'t'
   644  0681  3469               	retlw	105	;'i'
   645  0682  346E               	retlw	110	;'n'
   646  0683  3467               	retlw	103	;'g'
   647  0684  3420               	retlw	32	;' '
   648  0685  3420               	retlw	32	;' '
   649  0686  3400               	retlw	0
   650  0687                     STR_5:	
   651  0687  3420               	retlw	32	;' '
   652  0688  3434               	retlw	52	;'4'
   653  0689  342E               	retlw	46	;'.'
   654  068A  3453               	retlw	83	;'S'
   655  068B  3474               	retlw	116	;'t'
   656  068C  3461               	retlw	97	;'a'
   657  068D  3472               	retlw	114	;'r'
   658  068E  3474               	retlw	116	;'t'
   659  068F  342F               	retlw	47	;'/'
   660  0690  3452               	retlw	82	;'R'
   661  0691  3465               	retlw	101	;'e'
   662  0692  3473               	retlw	115	;'s'
   663  0693  3475               	retlw	117	;'u'
   664  0694  346D               	retlw	109	;'m'
   665  0695  3465               	retlw	101	;'e'
   666  0696  3400               	retlw	0
   667  0697                     STR_15:	
   668  0697  3453               	retlw	83	;'S'
   669  0698  3445               	retlw	69	;'E'
   670  0699  3454               	retlw	84	;'T'
   671  069A  3420               	retlw	32	;' '
   672  069B  3454               	retlw	84	;'T'
   673  069C  3445               	retlw	69	;'E'
   674  069D  344D               	retlw	77	;'M'
   675  069E  3450               	retlw	80	;'P'
   676  069F  3420               	retlw	32	;' '
   677  06A0  3428               	retlw	40	;'('
   678  06A1  3420               	retlw	32	;' '
   679  06A2  3443               	retlw	67	;'C'
   680  06A3  3429               	retlw	41	;')'
   681  06A4  3420               	retlw	32	;' '
   682  06A5  3400               	retlw	0
   683  06A6                     STR_1:	
   684  06A6  3420               	retlw	32	;' '
   685  06A7  3470               	retlw	112	;'p'
   686  06A8  346F               	retlw	111	;'o'
   687  06A9  3477               	retlw	119	;'w'
   688  06AA  3465               	retlw	101	;'e'
   689  06AB  3472               	retlw	114	;'r'
   690  06AC  3420               	retlw	32	;' '
   691  06AD  343D               	retlw	61	;'='
   692  06AE  3420               	retlw	32	;' '
   693  06AF  3439               	retlw	57	;'9'
   694  06B0  3430               	retlw	48	;'0'
   695  06B1  3430               	retlw	48	;'0'
   696  06B2  3457               	retlw	87	;'W'
   697  06B3  3420               	retlw	32	;' '
   698  06B4  3400               	retlw	0
   699  06B5                     STR_21:	
   700  06B5  3420               	retlw	32	;' '
   701  06B6  3454               	retlw	84	;'T'
   702  06B7  3469               	retlw	105	;'i'
   703  06B8  346D               	retlw	109	;'m'
   704  06B9  3465               	retlw	101	;'e'
   705  06BA  3420               	retlw	32	;' '
   706  06BB  3452               	retlw	82	;'R'
   707  06BC  3465               	retlw	101	;'e'
   708  06BD  346D               	retlw	109	;'m'
   709  06BE  342E               	retlw	46	;'.'
   710  06BF  343D               	retlw	61	;'='
   711  06C0  3420               	retlw	32	;' '
   712  06C1  3400               	retlw	0
   713  06C2                     STR_3:	
   714  06C2  3450               	retlw	80	;'P'
   715  06C3  346C               	retlw	108	;'l'
   716  06C4  3465               	retlw	101	;'e'
   717  06C5  3461               	retlw	97	;'a'
   718  06C6  3473               	retlw	115	;'s'
   719  06C7  3465               	retlw	101	;'e'
   720  06C8  3420               	retlw	32	;' '
   721  06C9  3443               	retlw	67	;'C'
   722  06CA  346C               	retlw	108	;'l'
   723  06CB  346F               	retlw	111	;'o'
   724  06CC  3473               	retlw	115	;'s'
   725  06CD  3465               	retlw	101	;'e'
   726  06CE  3400               	retlw	0
   727  06CF                     STR_2:	
   728  06CF  3444               	retlw	68	;'D'
   729  06D0  344F               	retlw	79	;'O'
   730  06D1  344F               	retlw	79	;'O'
   731  06D2  3452               	retlw	82	;'R'
   732  06D3  3420               	retlw	32	;' '
   733  06D4  3469               	retlw	105	;'i'
   734  06D5  3473               	retlw	115	;'s'
   735  06D6  3420               	retlw	32	;' '
   736  06D7  344F               	retlw	79	;'O'
   737  06D8  3470               	retlw	112	;'p'
   738  06D9  3465               	retlw	101	;'e'
   739  06DA  346E               	retlw	110	;'n'
   740  06DB  3400               	retlw	0
   741  06DC                     STR_13:	
   742  06DC  3433               	retlw	51	;'3'
   743  06DD  342E               	retlw	46	;'.'
   744  06DE  3443               	retlw	67	;'C'
   745  06DF  346F               	retlw	111	;'o'
   746  06E0  346E               	retlw	110	;'n'
   747  06E1  3476               	retlw	118	;'v'
   748  06E2  3465               	retlw	101	;'e'
   749  06E3  3463               	retlw	99	;'c'
   750  06E4  3474               	retlw	116	;'t'
   751  06E5  3469               	retlw	105	;'i'
   752  06E6  346F               	retlw	111	;'o'
   753  06E7  346E               	retlw	110	;'n'
   754  06E8  3400               	retlw	0
   755  06E9                     STR_8:	
   756  06E9  3420               	retlw	32	;' '
   757  06EA  3454               	retlw	84	;'T'
   758  06EB  3469               	retlw	105	;'i'
   759  06EC  346D               	retlw	109	;'m'
   760  06ED  3465               	retlw	101	;'e'
   761  06EE  3420               	retlw	32	;' '
   762  06EF  3455               	retlw	85	;'U'
   763  06F0  3470               	retlw	112	;'p'
   764  06F1  3421               	retlw	33	;'!'
   765  06F2  3420               	retlw	32	;' '
   766  06F3  3400               	retlw	0
   767  06F4                     STR_6:	
   768  06F4  3420               	retlw	32	;' '
   769  06F5  3435               	retlw	53	;'5'
   770  06F6  342E               	retlw	46	;'.'
   771  06F7  3450               	retlw	80	;'P'
   772  06F8  3461               	retlw	97	;'a'
   773  06F9  3475               	retlw	117	;'u'
   774  06FA  3473               	retlw	115	;'s'
   775  06FB  3465               	retlw	101	;'e'
   776  06FC  3400               	retlw	0
   777  06FD                     STR_4:	
   778  06FD  3454               	retlw	84	;'T'
   779  06FE  3449               	retlw	73	;'I'
   780  06FF  344D               	retlw	77	;'M'
   781  0700  3445               	retlw	69	;'E'
   782  0701  3420               	retlw	32	;' '
   783  0702  343D               	retlw	61	;'='
   784  0703  3420               	retlw	32	;' '
   785  0704  3400               	retlw	0
   786  0705                     STR_16:	
   787  0705  3454               	retlw	84	;'T'
   788  0706  3445               	retlw	69	;'E'
   789  0707  344D               	retlw	77	;'M'
   790  0708  3450               	retlw	80	;'P'
   791  0709  3420               	retlw	32	;' '
   792  070A  343D               	retlw	61	;'='
   793  070B  3420               	retlw	32	;' '
   794  070C  3400               	retlw	0
   795  070D                     STR_12:	
   796  070D  3432               	retlw	50	;'2'
   797  070E  342E               	retlw	46	;'.'
   798  070F  3447               	retlw	71	;'G'
   799  0710  3472               	retlw	114	;'r'
   800  0711  3469               	retlw	105	;'i'
   801  0712  346C               	retlw	108	;'l'
   802  0713  346C               	retlw	108	;'l'
   803  0714  3400               	retlw	0
   804  0715                     STR_11:	
   805  0715  3431               	retlw	49	;'1'
   806  0716  342E               	retlw	46	;'.'
   807  0717  344D               	retlw	77	;'M'
   808  0718  3469               	retlw	105	;'i'
   809  0719  3463               	retlw	99	;'c'
   810  071A  3472               	retlw	114	;'r'
   811  071B  346F               	retlw	111	;'o'
   812  071C  3400               	retlw	0
   813  071D                     STR_7:	
   814  071D  3420               	retlw	32	;' '
   815  071E  3436               	retlw	54	;'6'
   816  071F  342E               	retlw	46	;'.'
   817  0720  3453               	retlw	83	;'S'
   818  0721  3474               	retlw	116	;'t'
   819  0722  346F               	retlw	111	;'o'
   820  0723  3470               	retlw	112	;'p'
   821  0724  3400               	retlw	0
   822  0725                     STR_14:	
   823  0725  3434               	retlw	52	;'4'
   824  0726  342E               	retlw	46	;'.'
   825  0727  3453               	retlw	83	;'S'
   826  0728  3474               	retlw	116	;'t'
   827  0729  3461               	retlw	97	;'a'
   828  072A  3472               	retlw	114	;'r'
   829  072B  3474               	retlw	116	;'t'
   830  072C  3400               	retlw	0
   831  072D                     STR_25:	
   832  072D  3454               	retlw	84	;'T'
   833  072E  3449               	retlw	73	;'I'
   834  072F  344D               	retlw	77	;'M'
   835  0730  3445               	retlw	69	;'E'
   836  0731  342D               	retlw	45	;'-'
   837  0732  3420               	retlw	32	;' '
   838  0733  3400               	retlw	0
   839  0734                     STR_23:	
   840  0734  3420               	retlw	32	;' '
   841  0735  3420               	retlw	32	;' '
   842  0736  3420               	retlw	32	;' '
   843  0737  3400               	retlw	0
   844  0735                     
   845                           ; #config settings
   846  0000                     
   847                           	psect	cinit
   848  000F                     start_initialization:	
   849  000F                     __initialization:	
   850                           
   851                           ; Initialize objects allocated to BANK0
   852  000F  120A  118A  25F9  120A  118A  	fcall	__pidataBANK0	;fetch initializer
   853  0014  00C6               	movwf	__pdataBANK0& (0+127)
   854  0015  120A  118A  25FA  120A  118A  	fcall	__pidataBANK0+1	;fetch initializer
   855  001A  00C7               	movwf	(__pdataBANK0+1)& (0+127)
   856                           
   857                           ; Initialize objects allocated to COMMON
   858  001B  120A  118A  25FB  120A  118A  	fcall	__pidataCOMMON	;fetch initializer
   859  0020  00FA               	movwf	__pdataCOMMON& (0+127)
   860                           
   861                           ; Clear objects allocated to BANK0
   862  0021  01B8               	clrf	__pbssBANK0& (0+127)
   863  0022  01B9               	clrf	(__pbssBANK0+1)& (0+127)
   864  0023  01BA               	clrf	(__pbssBANK0+2)& (0+127)
   865  0024  01BB               	clrf	(__pbssBANK0+3)& (0+127)
   866  0025  01BC               	clrf	(__pbssBANK0+4)& (0+127)
   867  0026  01BD               	clrf	(__pbssBANK0+5)& (0+127)
   868  0027  01BE               	clrf	(__pbssBANK0+6)& (0+127)
   869  0028  01BF               	clrf	(__pbssBANK0+7)& (0+127)
   870  0029  01C0               	clrf	(__pbssBANK0+8)& (0+127)
   871  002A  01C1               	clrf	(__pbssBANK0+9)& (0+127)
   872  002B  01C2               	clrf	(__pbssBANK0+10)& (0+127)
   873  002C  01C3               	clrf	(__pbssBANK0+11)& (0+127)
   874  002D  01C4               	clrf	(__pbssBANK0+12)& (0+127)
   875  002E  01C5               	clrf	(__pbssBANK0+13)& (0+127)
   876                           
   877                           ; Clear objects allocated to COMMON
   878  002F  01F9               	clrf	__pbssCOMMON& (0+127)
   879  0030                     end_of_initialization:	
   880                           ;End of C runtime variable initialization code
   881                           
   882  0030                     __end_of__initialization:	
   883  0030  0183               	clrf	3
   884  0031  120A  118A  2C0D   	ljmp	_main	;jump to C main() function
   885                           
   886                           	psect	bssCOMMON
   887  0079                     __pbssCOMMON:	
   888  0079                     _min:	
   889  0079                     	ds	1
   890                           
   891                           	psect	dataCOMMON
   892  007A                     __pdataCOMMON:	
   893  007A                     read_matrix_keypad@once:	
   894  007A                     	ds	1
   895                           
   896                           	psect	bssBANK0
   897  0038                     __pbssBANK0:	
   898  0038                     isr@count:	
   899  0038                     	ds	2
   900  003A                     set_time@wait:	
   901  003A                     	ds	2
   902  003C                     set_temp@wait:	
   903  003C                     	ds	2
   904  003E                     set_time@blink:	
   905  003E                     	ds	1
   906  003F                     set_time@blink_pos:	
   907  003F                     	ds	1
   908  0040                     set_time@key_count:	
   909  0040                     	ds	1
   910  0041                     set_temp@temp:	
   911  0041                     	ds	1
   912  0042                     set_temp@blink:	
   913  0042                     	ds	1
   914  0043                     set_temp@key_count:	
   915  0043                     	ds	1
   916  0044                     _flag:	
   917  0044                     	ds	1
   918  0045                     _sec:	
   919  0045                     	ds	1
   920                           
   921                           	psect	dataBANK0
   922  0046                     __pdataBANK0:	
   923  0046                     _operation_flag:	
   924  0046                     	ds	2
   925                           
   926                           	psect	cstackCOMMON
   927  0070                     __pcstackCOMMON:	
   928  0070                     ?_init_clcd:	
   929  0070                     ?_init_matrix_keypad:	
   930                           ; 1 bytes @ 0x0
   931                           
   932  0070                     ?_init_timer2:	
   933                           ; 1 bytes @ 0x0
   934                           
   935  0070                     ?_read_matrix_keypad:	
   936                           ; 1 bytes @ 0x0
   937                           
   938  0070                     ?_door_status:	
   939                           ; 1 bytes @ 0x0
   940                           
   941  0070                     ?_clear_screen:	
   942                           ; 1 bytes @ 0x0
   943                           
   944  0070                     ?_power_on_screen:	
   945                           ; 1 bytes @ 0x0
   946                           
   947  0070                     ?_menu_display_screen:	
   948                           ; 1 bytes @ 0x0
   949                           
   950  0070                     ?_time_display_screen:	
   951                           ; 1 bytes @ 0x0
   952                           
   953  0070                     ?_init_config:	
   954                           ; 1 bytes @ 0x0
   955                           
   956  0070                     ?_main:	
   957                           ; 1 bytes @ 0x0
   958                           
   959  0070                     ?_init_display_controller:	
   960                           ; 1 bytes @ 0x0
   961                           
   962  0070                     ?_scan_keypad:	
   963                           ; 1 bytes @ 0x0
   964                           
   965  0070                     ?_isr:	
   966                           ; 1 bytes @ 0x0
   967                           
   968  0070                     ??_isr:	
   969                           ; 1 bytes @ 0x0
   970                           
   971                           
   972                           ; 1 bytes @ 0x0
   973  0070                     	ds	3
   974  0073                     ??_init_matrix_keypad:	
   975  0073                     ??_init_timer2:	
   976                           ; 1 bytes @ 0x3
   977                           
   978  0073                     ?_clcd_write:	
   979                           ; 1 bytes @ 0x3
   980                           
   981  0073                     ??_scan_keypad:	
   982                           ; 1 bytes @ 0x3
   983                           
   984  0073                     ?___bmul:	
   985                           ; 1 bytes @ 0x3
   986                           
   987  0073                     ?___awdiv:	
   988                           ; 1 bytes @ 0x3
   989                           
   990  0073                     clcd_write@mode:	
   991                           ; 2 bytes @ 0x3
   992                           
   993  0073                     ___bmul@multiplicand:	
   994                           ; 1 bytes @ 0x3
   995                           
   996  0073                     scan_keypad@i:	
   997                           ; 1 bytes @ 0x3
   998                           
   999  0073                     ___awdiv@divisor:	
  1000                           ; 2 bytes @ 0x3
  1001                           
  1002                           
  1003                           ; 2 bytes @ 0x3
  1004  0073                     	ds	1
  1005  0074                     ??_clcd_write:	
  1006  0074                     ??___bmul:	
  1007                           ; 1 bytes @ 0x4
  1008                           
  1009                           
  1010                           ; 1 bytes @ 0x4
  1011  0074                     	ds	1
  1012  0075                     ??_read_matrix_keypad:	
  1013  0075                     ___bmul@product:	
  1014                           ; 1 bytes @ 0x5
  1015                           
  1016  0075                     ___awdiv@dividend:	
  1017                           ; 1 bytes @ 0x5
  1018                           
  1019                           
  1020                           ; 2 bytes @ 0x5
  1021  0075                     	ds	1
  1022  0076                     clcd_write@byte:	
  1023  0076                     read_matrix_keypad@mode:	
  1024                           ; 1 bytes @ 0x6
  1025                           
  1026  0076                     ___bmul@multiplier:	
  1027                           ; 1 bytes @ 0x6
  1028                           
  1029                           
  1030                           ; 1 bytes @ 0x6
  1031  0076                     	ds	1
  1032  0077                     ??_clear_screen:	
  1033  0077                     ??_clcd_print:	
  1034                           ; 1 bytes @ 0x7
  1035                           
  1036  0077                     ??_menu_display_screen:	
  1037                           ; 1 bytes @ 0x7
  1038                           
  1039  0077                     ??_init_display_controller:	
  1040                           ; 1 bytes @ 0x7
  1041                           
  1042  0077                     ??___awdiv:	
  1043                           ; 1 bytes @ 0x7
  1044                           
  1045  0077                     read_matrix_keypad@key:	
  1046                           ; 1 bytes @ 0x7
  1047                           
  1048                           
  1049                           ; 1 bytes @ 0x7
  1050  0077                     	ds	1
  1051  0078                     ??___awmod:	
  1052                           
  1053                           ; 1 bytes @ 0x8
  1054  0078                     	ds	1
  1055  0079                     ??_init_clcd:	
  1056  0079                     ??_clcd_putch:	
  1057                           ; 1 bytes @ 0x9
  1058                           
  1059  0079                     ??_init_config:	
  1060                           ; 1 bytes @ 0x9
  1061                           
  1062                           
  1063                           	psect	cstackBANK0
  1064  0020                     __pcstackBANK0:	
  1065                           ; 1 bytes @ 0x9
  1066                           
  1067  0020                     ?_clcd_print:	
  1068  0020                     ___awdiv@counter:	
  1069                           ; 1 bytes @ 0x0
  1070                           
  1071  0020                     clcd_print@str:	
  1072                           ; 1 bytes @ 0x0
  1073                           
  1074                           
  1075                           ; 2 bytes @ 0x0
  1076  0020                     	ds	1
  1077  0021                     ___awdiv@sign:	
  1078                           
  1079                           ; 1 bytes @ 0x1
  1080  0021                     	ds	1
  1081  0022                     clcd_print@addr:	
  1082  0022                     ___awdiv@quotient:	
  1083                           ; 1 bytes @ 0x2
  1084                           
  1085                           
  1086                           ; 2 bytes @ 0x2
  1087  0022                     	ds	1
  1088  0023                     ??_door_status:	
  1089                           
  1090                           ; 1 bytes @ 0x3
  1091  0023                     	ds	1
  1092  0024                     ?___awmod:	
  1093  0024                     ___awmod@divisor:	
  1094                           ; 2 bytes @ 0x4
  1095                           
  1096                           
  1097                           ; 2 bytes @ 0x4
  1098  0024                     	ds	2
  1099  0026                     ___awmod@dividend:	
  1100                           
  1101                           ; 2 bytes @ 0x6
  1102  0026                     	ds	2
  1103  0028                     ___awmod@counter:	
  1104                           
  1105                           ; 1 bytes @ 0x8
  1106  0028                     	ds	1
  1107  0029                     ___awmod@sign:	
  1108                           
  1109                           ; 1 bytes @ 0x9
  1110  0029                     	ds	1
  1111  002A                     ?_clcd_putch:	
  1112  002A                     clcd_putch@addr:	
  1113                           ; 1 bytes @ 0xA
  1114                           
  1115                           
  1116                           ; 1 bytes @ 0xA
  1117  002A                     	ds	1
  1118  002B                     clcd_putch@data:	
  1119                           
  1120                           ; 1 bytes @ 0xB
  1121  002B                     	ds	1
  1122  002C                     ??_power_on_screen:	
  1123  002C                     ?_set_time:	
  1124                           ; 1 bytes @ 0xC
  1125                           
  1126  002C                     ?_set_temp:	
  1127                           ; 1 bytes @ 0xC
  1128                           
  1129  002C                     ??_time_display_screen:	
  1130                           ; 1 bytes @ 0xC
  1131                           
  1132  002C                     set_temp@reset_flag:	
  1133                           ; 1 bytes @ 0xC
  1134                           
  1135  002C                     set_time@reset_flag:	
  1136                           ; 2 bytes @ 0xC
  1137                           
  1138                           
  1139                           ; 2 bytes @ 0xC
  1140  002C                     	ds	2
  1141  002E                     ??_set_time:	
  1142  002E                     ??_set_temp:	
  1143                           ; 1 bytes @ 0xE
  1144                           
  1145                           
  1146                           ; 1 bytes @ 0xE
  1147  002E                     	ds	1
  1148  002F                     power_on_screen@i:	
  1149                           
  1150                           ; 1 bytes @ 0xF
  1151  002F                     	ds	2
  1152  0031                     set_temp@key:	
  1153  0031                     set_time@key:	
  1154                           ; 1 bytes @ 0x11
  1155                           
  1156                           
  1157                           ; 1 bytes @ 0x11
  1158  0031                     	ds	1
  1159  0032                     ??_main:	
  1160                           
  1161                           ; 1 bytes @ 0x12
  1162  0032                     	ds	3
  1163  0035                     main@reset_flag:	
  1164                           
  1165                           ; 2 bytes @ 0x15
  1166  0035                     	ds	2
  1167  0037                     main@key:	
  1168                           
  1169                           ; 1 bytes @ 0x17
  1170  0037                     	ds	1
  1171                           
  1172                           	psect	maintext
  1173  040D                     __pmaintext:	
  1174 ;;
  1175 ;;Main: autosize = 0, tempsize = 3, incstack = 0, save=0
  1176 ;;
  1177 ;; *************** function _main *****************
  1178 ;; Defined at:
  1179 ;;		line 36 in file "main.c"
  1180 ;; Parameters:    Size  Location     Type
  1181 ;;		None
  1182 ;; Auto vars:     Size  Location     Type
  1183 ;;  reset_flag      2   21[BANK0 ] int 
  1184 ;;  key             1   23[BANK0 ] unsigned char 
  1185 ;; Return value:  Size  Location     Type
  1186 ;;                  1    wreg      void 
  1187 ;; Registers used:
  1188 ;;		wreg, fsr0l, fsr0h, status,2, status,0, btemp+1, pclath, cstack
  1189 ;; Tracked objects:
  1190 ;;		On entry : B00/0
  1191 ;;		On exit  : 0/0
  1192 ;;		Unchanged: 0/0
  1193 ;; Data sizes:     COMMON   BANK0   BANK1   BANK3   BANK2
  1194 ;;      Params:         0       0       0       0       0
  1195 ;;      Locals:         0       3       0       0       0
  1196 ;;      Temps:          0       3       0       0       0
  1197 ;;      Totals:         0       6       0       0       0
  1198 ;;Total ram usage:        6 bytes
  1199 ;; Hardware stack levels required when called:    5
  1200 ;; This function calls:
  1201 ;;		_clcd_print
  1202 ;;		_clear_screen
  1203 ;;		_door_status
  1204 ;;		_init_config
  1205 ;;		_menu_display_screen
  1206 ;;		_power_on_screen
  1207 ;;		_read_matrix_keypad
  1208 ;;		_set_temp
  1209 ;;		_set_time
  1210 ;;		_time_display_screen
  1211 ;; This function is called by:
  1212 ;;		Startup code after reset
  1213 ;; This function uses a non-reentrant model
  1214 ;;
  1215                           
  1216                           
  1217                           ;psect for function _main
  1218  040D                     _main:	
  1219  040D                     l2823:	
  1220                           ;incstack = 0
  1221                           ; Regs used in _main: [wreg-fsr0h+status,2+status,0+btemp+1+pclath+cstack]
  1222                           
  1223                           
  1224                           ;main.c: 37:         }
  1225  040D  120A  158A  2478  120A  118A  	fcall	_init_config
  1226  0412                     l2825:	
  1227                           
  1228                           ;main.c: 43:         {
  1229  0412  3001               	movlw	1
  1230  0413  120A  158A  2497  120A  118A  	fcall	_read_matrix_keypad
  1231  0418  1283               	bcf	3,5	;RP0=0, select bank0
  1232  0419  1303               	bcf	3,6	;RP1=0, select bank0
  1233  041A  00B2               	movwf	??_main
  1234  041B  0832               	movf	??_main,w
  1235  041C  00B7               	movwf	main@key
  1236  041D                     l2827:	
  1237                           
  1238                           ;main.c: 46:             clear_screen();
  1239  041D  1986               	btfsc	6,3	;volatile
  1240  041E  2C20               	goto	u2571
  1241  041F  2C21               	goto	u2570
  1242  0420                     u2571:	
  1243  0420  2C26               	goto	l2831
  1244  0421                     u2570:	
  1245  0421                     l2829:	
  1246                           
  1247                           ;main.c: 48:             _delay((unsigned long)((2000)*(20000000/4000.0)));
  1248  0421  120A  158A  255C  120A  118A  	fcall	_door_status
  1249  0426                     l2831:	
  1250                           
  1251                           ;main.c: 51:         }
  1252  0426  3002               	movlw	2
  1253  0427  1283               	bcf	3,5	;RP0=0, select bank0
  1254  0428  1303               	bcf	3,6	;RP1=0, select bank0
  1255  0429  0646               	xorwf	_operation_flag,w
  1256  042A  0447               	iorwf	_operation_flag+1,w
  1257  042B  1D03               	btfss	3,2
  1258  042C  2C2E               	goto	u2581
  1259  042D  2C2F               	goto	u2580
  1260  042E                     u2581:	
  1261  042E  2C9C               	goto	l2871
  1262  042F                     u2580:	
  1263  042F                     l2833:	
  1264                           
  1265                           ;main.c: 52:         else if(key == 2);main.c: 54:             operation_flag = 0x04;
  1266  042F  0337               	decf	main@key,w
  1267  0430  1D03               	btfss	3,2
  1268  0431  2C33               	goto	u2591
  1269  0432  2C34               	goto	u2590
  1270  0433                     u2591:	
  1271  0433  2C64               	goto	l2845
  1272  0434                     u2590:	
  1273  0434                     l2835:	
  1274                           
  1275                           ;main.c: 55:             reset_flag = 0x10;;main.c: 56:             clear_screen();
  1276  0434  3003               	movlw	3
  1277  0435  00C6               	movwf	_operation_flag
  1278  0436  3000               	movlw	0
  1279  0437  00C7               	movwf	_operation_flag+1
  1280                           
  1281                           ;main.c: 57:         }
  1282  0438  3010               	movlw	16
  1283  0439  00B5               	movwf	main@reset_flag
  1284  043A  3000               	movlw	0
  1285  043B  00B6               	movwf	main@reset_flag+1
  1286  043C                     l2837:	
  1287                           
  1288                           ;main.c: 58:         else if(key == 3)
  1289  043C  120A  158A  243D  120A  118A  	fcall	_clear_screen
  1290  0441                     l2839:	
  1291                           
  1292                           ;main.c: 59:         {
  1293  0441  30A6               	movlw	low (STR_1| (0+32768))
  1294  0442  1283               	bcf	3,5	;RP0=0, select bank0
  1295  0443  1303               	bcf	3,6	;RP1=0, select bank0
  1296  0444  00A0               	movwf	clcd_print@str
  1297  0445  3086               	movlw	high (STR_1| (0+32768))
  1298  0446  00A1               	movwf	clcd_print@str+1
  1299  0447  30C0               	movlw	192
  1300  0448  00B2               	movwf	??_main
  1301  0449  0832               	movf	??_main,w
  1302  044A  00A2               	movwf	clcd_print@addr
  1303  044B  120A  158A  24BC  120A  118A  	fcall	_clcd_print
  1304  0450                     l2841:	
  1305                           
  1306                           ;main.c: 60:             operation_flag = 0x05;
  1307  0450  3033               	movlw	51
  1308  0451  1283               	bcf	3,5	;RP0=0, select bank0
  1309  0452  1303               	bcf	3,6	;RP1=0, select bank0
  1310  0453  00B4               	movwf	??_main+2
  1311  0454  30BB               	movlw	187
  1312  0455  00B3               	movwf	??_main+1
  1313  0456  30DF               	movlw	223
  1314  0457  00B2               	movwf	??_main
  1315  0458                     u2737:	
  1316  0458  0BB2               	decfsz	??_main,f
  1317  0459  2C58               	goto	u2737
  1318  045A  0BB3               	decfsz	??_main+1,f
  1319  045B  2C58               	goto	u2737
  1320  045C  0BB4               	decfsz	??_main+2,f
  1321  045D  2C58               	goto	u2737
  1322  045E                     l2843:	
  1323                           
  1324                           ;main.c: 61:             reset_flag = 0x10;
  1325  045E  120A  158A  243D  120A  118A  	fcall	_clear_screen
  1326                           
  1327                           ;main.c: 63:         }
  1328  0463  2D53               	goto	l2931
  1329  0464                     l2845:	
  1330  0464  3002               	movlw	2
  1331  0465  0637               	xorwf	main@key,w
  1332  0466  1D03               	btfss	3,2
  1333  0467  2C69               	goto	u2601
  1334  0468  2C6A               	goto	u2600
  1335  0469                     u2601:	
  1336  0469  2C73               	goto	l2851
  1337  046A                     u2600:	
  1338  046A                     l2847:	
  1339                           
  1340                           ;main.c: 65:         {;main.c: 66:             sec = 30;
  1341  046A  3004               	movlw	4
  1342  046B  00C6               	movwf	_operation_flag
  1343  046C  3000               	movlw	0
  1344  046D  00C7               	movwf	_operation_flag+1
  1345                           
  1346                           ;main.c: 67:             min = 0;
  1347  046E  3010               	movlw	16
  1348  046F  00B5               	movwf	main@reset_flag
  1349  0470  3000               	movlw	0
  1350  0471  00B6               	movwf	main@reset_flag+1
  1351  0472  2C5E               	goto	l2843
  1352  0473                     l2851:	
  1353  0473  3003               	movlw	3
  1354  0474  0637               	xorwf	main@key,w
  1355  0475  1D03               	btfss	3,2
  1356  0476  2C78               	goto	u2611
  1357  0477  2C79               	goto	u2610
  1358  0478                     u2611:	
  1359  0478  2C82               	goto	l2857
  1360  0479                     u2610:	
  1361  0479                     l2853:	
  1362                           
  1363                           ;main.c: 71:             operation_flag = 0x07;;main.c: 72:         }
  1364  0479  3005               	movlw	5
  1365  047A  00C6               	movwf	_operation_flag
  1366  047B  3000               	movlw	0
  1367  047C  00C7               	movwf	_operation_flag+1
  1368                           
  1369                           ;main.c: 73:         }
  1370  047D  3010               	movlw	16
  1371  047E  00B5               	movwf	main@reset_flag
  1372  047F  3000               	movlw	0
  1373  0480  00B6               	movwf	main@reset_flag+1
  1374  0481  2C5E               	goto	l2843
  1375  0482                     l2857:	
  1376  0482  3004               	movlw	4
  1377  0483  0637               	xorwf	main@key,w
  1378  0484  1D03               	btfss	3,2
  1379  0485  2C87               	goto	u2621
  1380  0486  2C88               	goto	u2620
  1381  0487                     u2621:	
  1382  0487  2C9B               	goto	l68
  1383  0488                     u2620:	
  1384  0488                     l2859:	
  1385                           
  1386                           ;main.c: 77:             {;main.c: 78:                 sec = sec + 30;
  1387  0488  301E               	movlw	30
  1388  0489  00B2               	movwf	??_main
  1389  048A  0832               	movf	??_main,w
  1390  048B  00C5               	movwf	_sec
  1391  048C                     l2861:	
  1392                           
  1393                           ;main.c: 79:                 if(sec > 59)
  1394  048C  01F9               	clrf	_min
  1395  048D                     l2863:	
  1396                           
  1397                           ;main.c: 80:                 {
  1398  048D  1507               	bsf	7,2	;volatile
  1399  048E                     l2865:	
  1400                           
  1401                           ;main.c: 81:                     min++;
  1402  048E  1512               	bsf	18,2	;volatile
  1403  048F                     l2867:	
  1404                           
  1405                           ;main.c: 82:                     sec = sec -60;
  1406  048F  120A  158A  243D  120A  118A  	fcall	_clear_screen
  1407  0494                     l2869:	
  1408                           
  1409                           ;main.c: 83:                 }
  1410  0494  3007               	movlw	7
  1411  0495  1283               	bcf	3,5	;RP0=0, select bank0
  1412  0496  1303               	bcf	3,6	;RP1=0, select bank0
  1413  0497  00C6               	movwf	_operation_flag
  1414  0498  3000               	movlw	0
  1415  0499  00C7               	movwf	_operation_flag+1
  1416  049A  2D53               	goto	l2931
  1417  049B                     l68:	
  1418                           
  1419                           ;main.c: 85:             else if(key == 5)
  1420  049B  2D53               	goto	l2931
  1421  049C                     l2871:	
  1422  049C  3007               	movlw	7
  1423  049D  0646               	xorwf	_operation_flag,w
  1424  049E  0447               	iorwf	_operation_flag+1,w
  1425  049F  1D03               	btfss	3,2
  1426  04A0  2CA2               	goto	u2631
  1427  04A1  2CA3               	goto	u2630
  1428  04A2                     u2631:	
  1429  04A2  2CD4               	goto	l2891
  1430  04A3                     u2630:	
  1431  04A3                     l2873:	
  1432                           
  1433                           ;main.c: 87:                 operation_flag = 0x09;;main.c: 88:             }
  1434  04A3  3004               	movlw	4
  1435  04A4  0637               	xorwf	main@key,w
  1436  04A5  1D03               	btfss	3,2
  1437  04A6  2CA8               	goto	u2641
  1438  04A7  2CA9               	goto	u2640
  1439  04A8                     u2641:	
  1440  04A8  2CBE               	goto	l2881
  1441  04A9                     u2640:	
  1442  04A9                     l2875:	
  1443                           
  1444                           ;main.c: 89:             else if(key == 6);main.c: 90:             {
  1445  04A9  0845               	movf	_sec,w
  1446  04AA  3E1E               	addlw	30
  1447  04AB  00B2               	movwf	??_main
  1448  04AC  0832               	movf	??_main,w
  1449  04AD  00C5               	movwf	_sec
  1450  04AE                     l2877:	
  1451                           
  1452                           ;main.c: 91:                 operation_flag = 0x0A;
  1453  04AE  303C               	movlw	60
  1454  04AF  0245               	subwf	_sec,w
  1455  04B0  1C03               	skipc
  1456  04B1  2CB3               	goto	u2651
  1457  04B2  2CB4               	goto	u2650
  1458  04B3                     u2651:	
  1459  04B3  2D53               	goto	l2931
  1460  04B4                     u2650:	
  1461  04B4                     l2879:	
  1462                           
  1463                           ;main.c: 92:                 clear_screen();;main.c: 93:             }
  1464  04B4  3001               	movlw	1
  1465  04B5  00B2               	movwf	??_main
  1466  04B6  0832               	movf	??_main,w
  1467  04B7  07F9               	addwf	_min,f
  1468                           
  1469                           ;main.c: 94:         }
  1470  04B8  0845               	movf	_sec,w
  1471  04B9  3EC4               	addlw	196
  1472  04BA  00B2               	movwf	??_main
  1473  04BB  0832               	movf	??_main,w
  1474  04BC  00C5               	movwf	_sec
  1475  04BD  2D53               	goto	l2931
  1476  04BE                     l2881:	
  1477  04BE  3005               	movlw	5
  1478  04BF  0637               	xorwf	main@key,w
  1479  04C0  1D03               	btfss	3,2
  1480  04C1  2CC3               	goto	u2661
  1481  04C2  2CC4               	goto	u2660
  1482  04C3                     u2661:	
  1483  04C3  2CC9               	goto	l2885
  1484  04C4                     u2660:	
  1485  04C4                     l2883:	
  1486                           
  1487                           ;main.c: 98:             {;main.c: 99:                 RC2 = 1;
  1488  04C4  3009               	movlw	9
  1489  04C5  00C6               	movwf	_operation_flag
  1490  04C6  3000               	movlw	0
  1491  04C7  00C7               	movwf	_operation_flag+1
  1492                           
  1493                           ;main.c: 100:                 TMR2ON = 1;
  1494  04C8  2D53               	goto	l2931
  1495  04C9                     l2885:	
  1496  04C9  3006               	movlw	6
  1497  04CA  0637               	xorwf	main@key,w
  1498  04CB  1D03               	btfss	3,2
  1499  04CC  2CCE               	goto	u2671
  1500  04CD  2CCF               	goto	u2670
  1501  04CE                     u2671:	
  1502  04CE  2C9B               	goto	l68
  1503  04CF                     u2670:	
  1504  04CF                     l2887:	
  1505                           
  1506                           ;main.c: 102:             };main.c: 103:         }
  1507  04CF  300A               	movlw	10
  1508  04D0  00C6               	movwf	_operation_flag
  1509  04D1  3000               	movlw	0
  1510  04D2  00C7               	movwf	_operation_flag+1
  1511  04D3  2C5E               	goto	l2843
  1512  04D4                     l2891:	
  1513  04D4  3009               	movlw	9
  1514  04D5  0646               	xorwf	_operation_flag,w
  1515  04D6  0447               	iorwf	_operation_flag+1,w
  1516  04D7  1D03               	btfss	3,2
  1517  04D8  2CDA               	goto	u2681
  1518  04D9  2CDB               	goto	u2680
  1519  04DA                     u2681:	
  1520  04DA  2C9B               	goto	l68
  1521  04DB                     u2680:	
  1522  04DB                     l2893:	
  1523                           
  1524                           ;main.c: 108:             case 0x01:;main.c: 109: 
  1525  04DB  3004               	movlw	4
  1526  04DC  0637               	xorwf	main@key,w
  1527  04DD  1D03               	btfss	3,2
  1528  04DE  2CE0               	goto	u2691
  1529  04DF  2CE1               	goto	u2690
  1530  04E0                     u2691:	
  1531  04E0  2D53               	goto	l2931
  1532  04E1                     u2690:	
  1533  04E1                     l2895:	
  1534                           
  1535                           ;main.c: 110:                 power_on_screen();;main.c: 111:                 operation_
      +                          flag = 0x02;
  1536  04E1  1507               	bsf	7,2	;volatile
  1537                           
  1538                           ;main.c: 112:                 clear_screen();
  1539  04E2  1512               	bsf	18,2	;volatile
  1540  04E3  2C94               	goto	l2869
  1541  04E4                     l2899:	
  1542                           
  1543                           ;main.c: 122:                 break;
  1544  04E4  120A  118A  257E  120A  118A  	fcall	_power_on_screen
  1545  04E9                     l2901:	
  1546                           
  1547                           ;main.c: 123:             case 0x05:
  1548  04E9  3002               	movlw	2
  1549  04EA  1283               	bcf	3,5	;RP0=0, select bank0
  1550  04EB  1303               	bcf	3,6	;RP1=0, select bank0
  1551  04EC  00C6               	movwf	_operation_flag
  1552  04ED  3000               	movlw	0
  1553  04EE  00C7               	movwf	_operation_flag+1
  1554  04EF                     l2903:	
  1555                           
  1556                           ;main.c: 124: 
  1557  04EF  120A  158A  243D  120A  118A  	fcall	_clear_screen
  1558                           
  1559                           ;main.c: 125:                 if(flag == 0)
  1560  04F4  2D74               	goto	l2933
  1561  04F5                     l2905:	
  1562                           
  1563                           ;main.c: 127:                     set_temp(key,reset_flag);
  1564  04F5  120A  158A  2597  120A  118A  	fcall	_menu_display_screen
  1565                           
  1566                           ;main.c: 128:                     if(flag == 1)
  1567  04FA  2D74               	goto	l2933
  1568  04FB                     l2907:	
  1569                           
  1570                           ;main.c: 130:                         clear_screen();
  1571  04FB  0836               	movf	main@reset_flag+1,w
  1572  04FC  00AD               	movwf	set_time@reset_flag+1
  1573  04FD  0835               	movf	main@reset_flag,w
  1574  04FE  00AC               	movwf	set_time@reset_flag
  1575  04FF  0837               	movf	main@key,w
  1576  0500  120A  118A  2282  120A  118A  	fcall	_set_time
  1577                           
  1578                           ;main.c: 131:                         reset_flag = 0x10;
  1579  0505  2D74               	goto	l2933
  1580  0506                     l2909:	
  1581                           
  1582                           ;main.c: 133:                     }
  1583  0506  0836               	movf	main@reset_flag+1,w
  1584  0507  00AD               	movwf	set_time@reset_flag+1
  1585  0508  0835               	movf	main@reset_flag,w
  1586  0509  00AC               	movwf	set_time@reset_flag
  1587  050A  0837               	movf	main@key,w
  1588  050B  120A  118A  2282  120A  118A  	fcall	_set_time
  1589                           
  1590                           ;main.c: 134:                 }
  1591  0510  2D74               	goto	l2933
  1592  0511                     l2911:	
  1593                           
  1594                           ;main.c: 137:                     set_time(key, reset_flag);
  1595  0511  0844               	movf	_flag,w
  1596  0512  1D03               	btfss	3,2
  1597  0513  2D15               	goto	u2701
  1598  0514  2D16               	goto	u2700
  1599  0515                     u2701:	
  1600  0515  2D33               	goto	l2921
  1601  0516                     u2700:	
  1602  0516                     l2913:	
  1603                           
  1604                           ;main.c: 138:                 };main.c: 139:                 break;
  1605  0516  0836               	movf	main@reset_flag+1,w
  1606  0517  00AD               	movwf	set_temp@reset_flag+1
  1607  0518  0835               	movf	main@reset_flag,w
  1608  0519  00AC               	movwf	set_temp@reset_flag
  1609  051A  0837               	movf	main@key,w
  1610  051B  120A  118A  2034  120A  118A  	fcall	_set_temp
  1611  0520                     l2915:	
  1612                           
  1613                           ;main.c: 140:             case 0x07:
  1614  0520  1283               	bcf	3,5	;RP0=0, select bank0
  1615  0521  1303               	bcf	3,6	;RP1=0, select bank0
  1616  0522  0344               	decf	_flag,w
  1617  0523  1D03               	btfss	3,2
  1618  0524  2D26               	goto	u2711
  1619  0525  2D27               	goto	u2710
  1620  0526                     u2711:	
  1621  0526  2D74               	goto	l2933
  1622  0527                     u2710:	
  1623  0527                     l2917:	
  1624                           
  1625                           ;main.c: 141:                 time_display_screen();;main.c: 142:                 break;
  1626  0527  120A  158A  243D  120A  118A  	fcall	_clear_screen
  1627  052C                     l2919:	
  1628                           
  1629                           ;main.c: 143:             case 0x09:
  1630  052C  3010               	movlw	16
  1631  052D  1283               	bcf	3,5	;RP0=0, select bank0
  1632  052E  1303               	bcf	3,6	;RP1=0, select bank0
  1633  052F  00B5               	movwf	main@reset_flag
  1634  0530  3000               	movlw	0
  1635  0531  00B6               	movwf	main@reset_flag+1
  1636                           
  1637                           ;main.c: 144:                 RC2 = 0;
  1638  0532  2C12               	goto	l2825
  1639  0533                     l2921:	
  1640  0533  0344               	decf	_flag,w
  1641  0534  1D03               	btfss	3,2
  1642  0535  2D37               	goto	u2721
  1643  0536  2D38               	goto	u2720
  1644  0537                     u2721:	
  1645  0537  2D74               	goto	l2933
  1646  0538                     u2720:	
  1647  0538                     l2923:	
  1648                           
  1649                           ;main.c: 148:                 RC2 = 0;;main.c: 149:                 TMR2ON = 0;
  1650  0538  0836               	movf	main@reset_flag+1,w
  1651  0539  00AD               	movwf	set_time@reset_flag+1
  1652  053A  0835               	movf	main@reset_flag,w
  1653  053B  00AC               	movwf	set_time@reset_flag
  1654  053C  0837               	movf	main@key,w
  1655  053D  120A  118A  2282  120A  118A  	fcall	_set_time
  1656  0542  2D74               	goto	l2933
  1657  0543                     l2925:	
  1658                           
  1659                           ;main.c: 153:         reset_flag = 0x0F;
  1660  0543  120A  158A  26FB  120A  118A  	fcall	_time_display_screen
  1661                           
  1662                           ;main.c: 154:     }
  1663  0548  2D74               	goto	l2933
  1664  0549                     l98:	
  1665                           ;main.c: 155: }
  1666                           
  1667                           
  1668                           ;main.c: 156: void door_status(void)
  1669  0549  1107               	bcf	7,2	;volatile
  1670                           
  1671                           ;main.c: 157: {
  1672  054A  1112               	bcf	18,2	;volatile
  1673                           
  1674                           ;main.c: 158:     if(RB3 == 0)
  1675  054B  2D74               	goto	l2933
  1676  054C                     l99:	
  1677                           ;main.c: 159:     {
  1678                           
  1679                           
  1680                           ;main.c: 160:         TMR2ON = 0;
  1681  054C  1107               	bcf	7,2	;volatile
  1682                           
  1683                           ;main.c: 161:         RC2 = 0;
  1684  054D  1112               	bcf	18,2	;volatile
  1685  054E                     l2927:	
  1686                           
  1687                           ;main.c: 162:         RC1 = 1;
  1688  054E  3002               	movlw	2
  1689  054F  00C6               	movwf	_operation_flag
  1690  0550  3000               	movlw	0
  1691  0551  00C7               	movwf	_operation_flag+1
  1692                           
  1693                           ;main.c: 163:         clear_screen();
  1694  0552  2D74               	goto	l2933
  1695  0553                     l2931:	
  1696                           
  1697                           ; Switch on 2 bytes has been partitioned into a top level switch of size 1, and 1 sub-sw
      +                          itches
  1698                           ; Switch size 1, requested type "simple"
  1699                           ; Number of cases is 1, Range of values is 0 to 0
  1700                           ; switch strategies available:
  1701                           ; Name         Instructions Cycles
  1702                           ; simple_byte            4     3 (average)
  1703                           ; direct_byte           11     8 (fixed)
  1704                           ; jumptable            260     6 (fixed)
  1705                           ;	Chosen strategy is simple_byte
  1706  0553  1283               	bcf	3,5	;RP0=0, select bank0
  1707  0554  1303               	bcf	3,6	;RP1=0, select bank0
  1708  0555  0847               	movf	_operation_flag+1,w
  1709  0556  3A00               	xorlw	0	; case 0
  1710  0557  1903               	skipnz
  1711  0558  2D5A               	goto	l2991
  1712  0559  2D74               	goto	l2933
  1713  055A                     l2991:	
  1714                           
  1715                           ; Switch size 1, requested type "simple"
  1716                           ; Number of cases is 8, Range of values is 1 to 10
  1717                           ; switch strategies available:
  1718                           ; Name         Instructions Cycles
  1719                           ; simple_byte           25    13 (average)
  1720                           ; direct_byte           41    11 (fixed)
  1721                           ; jumptable            263     9 (fixed)
  1722                           ;	Chosen strategy is simple_byte
  1723  055A  0846               	movf	_operation_flag,w
  1724  055B  3A01               	xorlw	1	; case 1
  1725  055C  1903               	skipnz
  1726  055D  2CE4               	goto	l2899
  1727  055E  3A03               	xorlw	3	; case 2
  1728  055F  1903               	skipnz
  1729  0560  2CF5               	goto	l2905
  1730  0561  3A01               	xorlw	1	; case 3
  1731  0562  1903               	skipnz
  1732  0563  2D06               	goto	l2909
  1733  0564  3A07               	xorlw	7	; case 4
  1734  0565  1903               	skipnz
  1735  0566  2CFB               	goto	l2907
  1736  0567  3A01               	xorlw	1	; case 5
  1737  0568  1903               	skipnz
  1738  0569  2D11               	goto	l2911
  1739  056A  3A02               	xorlw	2	; case 7
  1740  056B  1903               	skipnz
  1741  056C  2D43               	goto	l2925
  1742  056D  3A0E               	xorlw	14	; case 9
  1743  056E  1903               	skipnz
  1744  056F  2D49               	goto	l98
  1745  0570  3A03               	xorlw	3	; case 10
  1746  0571  1903               	skipnz
  1747  0572  2D4C               	goto	l99
  1748  0573  2D74               	goto	l2933
  1749  0574                     l2933:	
  1750                           
  1751                           ;main.c: 165:         clcd_print("Please Close",(0x90 + 0));
  1752  0574  300F               	movlw	15
  1753  0575  1283               	bcf	3,5	;RP0=0, select bank0
  1754  0576  1303               	bcf	3,6	;RP1=0, select bank0
  1755  0577  00B5               	movwf	main@reset_flag
  1756  0578  3000               	movlw	0
  1757  0579  00B6               	movwf	main@reset_flag+1
  1758  057A  2C12               	goto	l2825
  1759  057B  120A  118A  280C   	ljmp	start
  1760  057E                     __end_of_main:	
  1761                           
  1762                           	psect	text1
  1763  0EFB                     __ptext1:	
  1764 ;; *************** function _time_display_screen *****************
  1765 ;; Defined at:
  1766 ;;		line 189 in file "main.c"
  1767 ;; Parameters:    Size  Location     Type
  1768 ;;		None
  1769 ;; Auto vars:     Size  Location     Type
  1770 ;;		None
  1771 ;; Return value:  Size  Location     Type
  1772 ;;                  1    wreg      void 
  1773 ;; Registers used:
  1774 ;;		wreg, fsr0l, fsr0h, status,2, status,0, btemp+1, pclath, cstack
  1775 ;; Tracked objects:
  1776 ;;		On entry : 0/0
  1777 ;;		On exit  : 0/0
  1778 ;;		Unchanged: 0/0
  1779 ;; Data sizes:     COMMON   BANK0   BANK1   BANK3   BANK2
  1780 ;;      Params:         0       0       0       0       0
  1781 ;;      Locals:         0       0       0       0       0
  1782 ;;      Temps:          0       3       0       0       0
  1783 ;;      Totals:         0       3       0       0       0
  1784 ;;Total ram usage:        3 bytes
  1785 ;; Hardware stack levels used:    1
  1786 ;; Hardware stack levels required when called:    4
  1787 ;; This function calls:
  1788 ;;		___awdiv
  1789 ;;		___awmod
  1790 ;;		_clcd_print
  1791 ;;		_clcd_putch
  1792 ;;		_clear_screen
  1793 ;;		_door_status
  1794 ;; This function is called by:
  1795 ;;		_main
  1796 ;; This function uses a non-reentrant model
  1797 ;;
  1798                           
  1799                           
  1800                           ;psect for function _time_display_screen
  1801  0EFB                     _time_display_screen:	
  1802  0EFB                     l2783:	
  1803                           ;incstack = 0
  1804                           ; Regs used in _time_display_screen: [wreg-fsr0h+status,2+status,0+btemp+1+pclath+cstack
      +                          ]
  1805                           
  1806                           
  1807                           ;main.c: 191: 
  1808  0EFB  120A  158A  255C  120A  158A  	fcall	_door_status
  1809                           
  1810                           ;main.c: 193:     clcd_print(" 5.Pause",(0x90 + 0));
  1811  0F00  30FD               	movlw	low (STR_4| (0+32768))
  1812  0F01  1283               	bcf	3,5	;RP0=0, select bank0
  1813  0F02  1303               	bcf	3,6	;RP1=0, select bank0
  1814  0F03  00A0               	movwf	clcd_print@str
  1815  0F04  3086               	movlw	high (STR_4| (0+32768))
  1816  0F05  00A1               	movwf	clcd_print@str+1
  1817  0F06  3080               	movlw	128
  1818  0F07  00AC               	movwf	??_time_display_screen
  1819  0F08  082C               	movf	??_time_display_screen,w
  1820  0F09  00A2               	movwf	clcd_print@addr
  1821  0F0A  120A  158A  24BC  120A  158A  	fcall	_clcd_print
  1822  0F0F                     l2785:	
  1823                           
  1824                           ;main.c: 196:     if(sec == 0 && min == 0)
  1825  0F0F  3089               	movlw	137
  1826  0F10  1283               	bcf	3,5	;RP0=0, select bank0
  1827  0F11  1303               	bcf	3,6	;RP1=0, select bank0
  1828  0F12  00AC               	movwf	??_time_display_screen
  1829  0F13  082C               	movf	??_time_display_screen,w
  1830  0F14  00AA               	movwf	clcd_putch@addr
  1831  0F15  300A               	movlw	10
  1832  0F16  00F3               	movwf	___awdiv@divisor
  1833  0F17  3000               	movlw	0
  1834  0F18  00F4               	movwf	___awdiv@divisor+1
  1835  0F19  0879               	movf	_min,w
  1836  0F1A  00AD               	movwf	??_time_display_screen+1
  1837  0F1B  01AE               	clrf	??_time_display_screen+2
  1838  0F1C  082D               	movf	??_time_display_screen+1,w
  1839  0F1D  00F5               	movwf	___awdiv@dividend
  1840  0F1E  082E               	movf	??_time_display_screen+2,w
  1841  0F1F  00F6               	movwf	___awdiv@dividend+1
  1842  0F20  120A  158A  2692  120A  158A  	fcall	___awdiv
  1843  0F25  0873               	movf	?___awdiv,w
  1844  0F26  3E30               	addlw	48
  1845  0F27  120A  158A  244E  120A  158A  	fcall	_clcd_putch
  1846  0F2C                     l2787:	
  1847                           
  1848                           ;main.c: 197:     {
  1849  0F2C  308A               	movlw	138
  1850  0F2D  1283               	bcf	3,5	;RP0=0, select bank0
  1851  0F2E  1303               	bcf	3,6	;RP1=0, select bank0
  1852  0F2F  00AC               	movwf	??_time_display_screen
  1853  0F30  082C               	movf	??_time_display_screen,w
  1854  0F31  00AA               	movwf	clcd_putch@addr
  1855  0F32  300A               	movlw	10
  1856  0F33  00A4               	movwf	___awmod@divisor
  1857  0F34  3000               	movlw	0
  1858  0F35  00A5               	movwf	___awmod@divisor+1
  1859  0F36  0879               	movf	_min,w
  1860  0F37  00AD               	movwf	??_time_display_screen+1
  1861  0F38  01AE               	clrf	??_time_display_screen+2
  1862  0F39  082D               	movf	??_time_display_screen+1,w
  1863  0F3A  00A6               	movwf	___awmod@dividend
  1864  0F3B  082E               	movf	??_time_display_screen+2,w
  1865  0F3C  00A7               	movwf	___awmod@dividend+1
  1866  0F3D  120A  158A  25D4  120A  158A  	fcall	___awmod
  1867  0F42  1283               	bcf	3,5	;RP0=0, select bank0
  1868  0F43  1303               	bcf	3,6	;RP1=0, select bank0
  1869  0F44  0824               	movf	?___awmod,w
  1870  0F45  3E30               	addlw	48
  1871  0F46  120A  158A  244E  120A  158A  	fcall	_clcd_putch
  1872  0F4B                     l2789:	
  1873                           
  1874                           ;main.c: 198:         clear_screen();
  1875  0F4B  308B               	movlw	139
  1876  0F4C  1283               	bcf	3,5	;RP0=0, select bank0
  1877  0F4D  1303               	bcf	3,6	;RP1=0, select bank0
  1878  0F4E  00AC               	movwf	??_time_display_screen
  1879  0F4F  082C               	movf	??_time_display_screen,w
  1880  0F50  00AA               	movwf	clcd_putch@addr
  1881  0F51  303A               	movlw	58
  1882  0F52  120A  158A  244E  120A  158A  	fcall	_clcd_putch
  1883  0F57                     l2791:	
  1884                           
  1885                           ;main.c: 200:         RC1 = 1;
  1886  0F57  308C               	movlw	140
  1887  0F58  1283               	bcf	3,5	;RP0=0, select bank0
  1888  0F59  1303               	bcf	3,6	;RP1=0, select bank0
  1889  0F5A  00AC               	movwf	??_time_display_screen
  1890  0F5B  082C               	movf	??_time_display_screen,w
  1891  0F5C  00AA               	movwf	clcd_putch@addr
  1892  0F5D  300A               	movlw	10
  1893  0F5E  00F3               	movwf	___awdiv@divisor
  1894  0F5F  3000               	movlw	0
  1895  0F60  00F4               	movwf	___awdiv@divisor+1
  1896  0F61  0845               	movf	_sec,w
  1897  0F62  00AD               	movwf	??_time_display_screen+1
  1898  0F63  01AE               	clrf	??_time_display_screen+2
  1899  0F64  082D               	movf	??_time_display_screen+1,w
  1900  0F65  00F5               	movwf	___awdiv@dividend
  1901  0F66  082E               	movf	??_time_display_screen+2,w
  1902  0F67  00F6               	movwf	___awdiv@dividend+1
  1903  0F68  120A  158A  2692  120A  158A  	fcall	___awdiv
  1904  0F6D  0873               	movf	?___awdiv,w
  1905  0F6E  3E30               	addlw	48
  1906  0F6F  120A  158A  244E  120A  158A  	fcall	_clcd_putch
  1907  0F74                     l2793:	
  1908                           
  1909                           ;main.c: 201:         _delay((unsigned long)((3000)*(20000000/4000.0)));
  1910  0F74  308D               	movlw	141
  1911  0F75  1283               	bcf	3,5	;RP0=0, select bank0
  1912  0F76  1303               	bcf	3,6	;RP1=0, select bank0
  1913  0F77  00AC               	movwf	??_time_display_screen
  1914  0F78  082C               	movf	??_time_display_screen,w
  1915  0F79  00AA               	movwf	clcd_putch@addr
  1916  0F7A  300A               	movlw	10
  1917  0F7B  00A4               	movwf	___awmod@divisor
  1918  0F7C  3000               	movlw	0
  1919  0F7D  00A5               	movwf	___awmod@divisor+1
  1920  0F7E  0845               	movf	_sec,w
  1921  0F7F  00AD               	movwf	??_time_display_screen+1
  1922  0F80  01AE               	clrf	??_time_display_screen+2
  1923  0F81  082D               	movf	??_time_display_screen+1,w
  1924  0F82  00A6               	movwf	___awmod@dividend
  1925  0F83  082E               	movf	??_time_display_screen+2,w
  1926  0F84  00A7               	movwf	___awmod@dividend+1
  1927  0F85  120A  158A  25D4  120A  158A  	fcall	___awmod
  1928  0F8A  1283               	bcf	3,5	;RP0=0, select bank0
  1929  0F8B  1303               	bcf	3,6	;RP1=0, select bank0
  1930  0F8C  0824               	movf	?___awmod,w
  1931  0F8D  3E30               	addlw	48
  1932  0F8E  120A  158A  244E  120A  158A  	fcall	_clcd_putch
  1933  0F93                     l2795:	
  1934                           
  1935                           ;main.c: 204:         RC2 = 0;
  1936  0F93  3087               	movlw	low (STR_5| (0+32768))
  1937  0F94  1283               	bcf	3,5	;RP0=0, select bank0
  1938  0F95  1303               	bcf	3,6	;RP1=0, select bank0
  1939  0F96  00A0               	movwf	clcd_print@str
  1940  0F97  3086               	movlw	high (STR_5| (0+32768))
  1941  0F98  00A1               	movwf	clcd_print@str+1
  1942  0F99  30C0               	movlw	192
  1943  0F9A  00AC               	movwf	??_time_display_screen
  1944  0F9B  082C               	movf	??_time_display_screen,w
  1945  0F9C  00A2               	movwf	clcd_print@addr
  1946  0F9D  120A  158A  24BC  120A  158A  	fcall	_clcd_print
  1947  0FA2                     l2797:	
  1948                           
  1949                           ;main.c: 205:         TMR2ON = 0;
  1950  0FA2  30F4               	movlw	low (STR_6| (0+32768))
  1951  0FA3  1283               	bcf	3,5	;RP0=0, select bank0
  1952  0FA4  1303               	bcf	3,6	;RP1=0, select bank0
  1953  0FA5  00A0               	movwf	clcd_print@str
  1954  0FA6  3086               	movlw	high (STR_6| (0+32768))
  1955  0FA7  00A1               	movwf	clcd_print@str+1
  1956  0FA8  3090               	movlw	144
  1957  0FA9  00AC               	movwf	??_time_display_screen
  1958  0FAA  082C               	movf	??_time_display_screen,w
  1959  0FAB  00A2               	movwf	clcd_print@addr
  1960  0FAC  120A  158A  24BC  120A  158A  	fcall	_clcd_print
  1961  0FB1                     l2799:	
  1962                           
  1963                           ;main.c: 206:         operation_flag = 0x02;
  1964  0FB1  301D               	movlw	low (STR_7| (0+32768))
  1965  0FB2  1283               	bcf	3,5	;RP0=0, select bank0
  1966  0FB3  1303               	bcf	3,6	;RP1=0, select bank0
  1967  0FB4  00A0               	movwf	clcd_print@str
  1968  0FB5  3087               	movlw	high (STR_7| (0+32768))
  1969  0FB6  00A1               	movwf	clcd_print@str+1
  1970  0FB7  30D0               	movlw	208
  1971  0FB8  00AC               	movwf	??_time_display_screen
  1972  0FB9  082C               	movf	??_time_display_screen,w
  1973  0FBA  00A2               	movwf	clcd_print@addr
  1974  0FBB  120A  158A  24BC  120A  158A  	fcall	_clcd_print
  1975  0FC0                     l2801:	
  1976                           
  1977                           ;main.c: 208: }
  1978  0FC0  1283               	bcf	3,5	;RP0=0, select bank0
  1979  0FC1  1303               	bcf	3,6	;RP1=0, select bank0
  1980  0FC2  0845               	movf	_sec,w
  1981  0FC3  1D03               	btfss	3,2
  1982  0FC4  2FC6               	goto	u2551
  1983  0FC5  2FC7               	goto	u2550
  1984  0FC6                     u2551:	
  1985  0FC6  2FFF               	goto	l112
  1986  0FC7                     u2550:	
  1987  0FC7                     l2803:	
  1988  0FC7  0879               	movf	_min,w
  1989  0FC8  1D03               	btfss	3,2
  1990  0FC9  2FCB               	goto	u2561
  1991  0FCA  2FCC               	goto	u2560
  1992  0FCB                     u2561:	
  1993  0FCB  2FFF               	goto	l112
  1994  0FCC                     u2560:	
  1995  0FCC                     l2805:	
  1996                           
  1997                           ;main.c: 209: ;main.c: 210: void clear_screen(void)
  1998  0FCC  120A  158A  243D  120A  158A  	fcall	_clear_screen
  1999  0FD1                     l2807:	
  2000                           
  2001                           ;main.c: 211: {
  2002  0FD1  30E9               	movlw	low (STR_8| (0+32768))
  2003  0FD2  1283               	bcf	3,5	;RP0=0, select bank0
  2004  0FD3  1303               	bcf	3,6	;RP1=0, select bank0
  2005  0FD4  00A0               	movwf	clcd_print@str
  2006  0FD5  3086               	movlw	high (STR_8| (0+32768))
  2007  0FD6  00A1               	movwf	clcd_print@str+1
  2008  0FD7  30C0               	movlw	192
  2009  0FD8  00AC               	movwf	??_time_display_screen
  2010  0FD9  082C               	movf	??_time_display_screen,w
  2011  0FDA  00A2               	movwf	clcd_print@addr
  2012  0FDB  120A  158A  24BC  120A  158A  	fcall	_clcd_print
  2013  0FE0                     l2809:	
  2014                           
  2015                           ;main.c: 212:     clcd_write(0x01, 0);
  2016  0FE0  1283               	bcf	3,5	;RP0=0, select bank0
  2017  0FE1  1303               	bcf	3,6	;RP1=0, select bank0
  2018  0FE2  1487               	bsf	7,1	;volatile
  2019  0FE3                     l2811:	
  2020                           
  2021                           ;main.c: 213:     _delay((unsigned long)((500)*(20000000/4000000.0)));
  2022  0FE3  304D               	movlw	77
  2023  0FE4  1283               	bcf	3,5	;RP0=0, select bank0
  2024  0FE5  1303               	bcf	3,6	;RP1=0, select bank0
  2025  0FE6  00AE               	movwf	??_time_display_screen+2
  2026  0FE7  3019               	movlw	25
  2027  0FE8  00AD               	movwf	??_time_display_screen+1
  2028  0FE9  304F               	movlw	79
  2029  0FEA  00AC               	movwf	??_time_display_screen
  2030  0FEB                     u2747:	
  2031  0FEB  0BAC               	decfsz	??_time_display_screen,f
  2032  0FEC  2FEB               	goto	u2747
  2033  0FED  0BAD               	decfsz	??_time_display_screen+1,f
  2034  0FEE  2FEB               	goto	u2747
  2035  0FEF  0BAE               	decfsz	??_time_display_screen+2,f
  2036  0FF0  2FEB               	goto	u2747
  2037  0FF1                     l2813:	
  2038                           
  2039                           ;main.c: 214: }
  2040  0FF1  120A  158A  243D  120A  158A  	fcall	_clear_screen
  2041  0FF6                     l2815:	
  2042                           
  2043                           ;main.c: 215: void power_on_screen(void)
  2044  0FF6  1283               	bcf	3,5	;RP0=0, select bank0
  2045  0FF7  1303               	bcf	3,6	;RP1=0, select bank0
  2046  0FF8  1087               	bcf	7,1	;volatile
  2047  0FF9                     l2817:	
  2048                           
  2049                           ;main.c: 216: {
  2050  0FF9  1107               	bcf	7,2	;volatile
  2051  0FFA                     l2819:	
  2052                           
  2053                           ;main.c: 217:     unsigned char i;
  2054  0FFA  1112               	bcf	18,2	;volatile
  2055  0FFB                     l2821:	
  2056                           
  2057                           ;main.c: 218: 
  2058  0FFB  3002               	movlw	2
  2059  0FFC  00C6               	movwf	_operation_flag
  2060  0FFD  3000               	movlw	0
  2061  0FFE  00C7               	movwf	_operation_flag+1
  2062  0FFF                     l112:	
  2063  0FFF  0008               	return
  2064  1000                     __end_of_time_display_screen:	
  2065                           
  2066                           	psect	text2
  2067  0D5C                     __ptext2:	
  2068 ;; *************** function _door_status *****************
  2069 ;; Defined at:
  2070 ;;		line 168 in file "main.c"
  2071 ;; Parameters:    Size  Location     Type
  2072 ;;		None
  2073 ;; Auto vars:     Size  Location     Type
  2074 ;;		None
  2075 ;; Return value:  Size  Location     Type
  2076 ;;                  1    wreg      void 
  2077 ;; Registers used:
  2078 ;;		wreg, fsr0l, fsr0h, status,2, status,0, btemp+1, pclath, cstack
  2079 ;; Tracked objects:
  2080 ;;		On entry : 0/0
  2081 ;;		On exit  : 0/0
  2082 ;;		Unchanged: 0/0
  2083 ;; Data sizes:     COMMON   BANK0   BANK1   BANK3   BANK2
  2084 ;;      Params:         0       0       0       0       0
  2085 ;;      Locals:         0       0       0       0       0
  2086 ;;      Temps:          0       1       0       0       0
  2087 ;;      Totals:         0       1       0       0       0
  2088 ;;Total ram usage:        1 bytes
  2089 ;; Hardware stack levels used:    1
  2090 ;; Hardware stack levels required when called:    3
  2091 ;; This function calls:
  2092 ;;		_clcd_print
  2093 ;;		_clear_screen
  2094 ;; This function is called by:
  2095 ;;		_main
  2096 ;;		_time_display_screen
  2097 ;; This function uses a non-reentrant model
  2098 ;;
  2099                           
  2100                           
  2101                           ;psect for function _door_status
  2102  0D5C                     _door_status:	
  2103  0D5C                     l2503:	
  2104                           ;incstack = 0
  2105                           ; Regs used in _door_status: [wreg-fsr0h+status,2+status,0+btemp+1+pclath+cstack]
  2106                           
  2107                           
  2108                           ;main.c: 170:         }
  2109  0D5C  1283               	bcf	3,5	;RP0=0, select bank0
  2110  0D5D  1303               	bcf	3,6	;RP1=0, select bank0
  2111  0D5E  1986               	btfsc	6,3	;volatile
  2112  0D5F  2D61               	goto	u2101
  2113  0D60  2D62               	goto	u2100
  2114  0D61                     u2101:	
  2115  0D61  2D96               	goto	l108
  2116  0D62                     u2100:	
  2117  0D62                     l2505:	
  2118                           
  2119                           ;main.c: 171:         RC1 = 0;;main.c: 172:         TMR2ON = 1;
  2120  0D62  1112               	bcf	18,2	;volatile
  2121                           
  2122                           ;main.c: 173:         RC2 = 1;
  2123  0D63  1107               	bcf	7,2	;volatile
  2124                           
  2125                           ;main.c: 174:         clear_screen();
  2126  0D64  1487               	bsf	7,1	;volatile
  2127  0D65                     l2507:	
  2128                           
  2129                           ;main.c: 175:     }
  2130  0D65  120A  158A  243D  120A  158A  	fcall	_clear_screen
  2131  0D6A                     l2509:	
  2132                           
  2133                           ;main.c: 176: }
  2134  0D6A  30CF               	movlw	low (STR_2| (0+32768))
  2135  0D6B  1283               	bcf	3,5	;RP0=0, select bank0
  2136  0D6C  1303               	bcf	3,6	;RP1=0, select bank0
  2137  0D6D  00A0               	movwf	clcd_print@str
  2138  0D6E  3086               	movlw	high (STR_2| (0+32768))
  2139  0D6F  00A1               	movwf	clcd_print@str+1
  2140  0D70  30C0               	movlw	192
  2141  0D71  00A3               	movwf	??_door_status
  2142  0D72  0823               	movf	??_door_status,w
  2143  0D73  00A2               	movwf	clcd_print@addr
  2144  0D74  120A  158A  24BC  120A  158A  	fcall	_clcd_print
  2145  0D79                     l2511:	
  2146                           
  2147                           ;main.c: 177: void time_display_screen(void)
  2148  0D79  30C2               	movlw	low (STR_3| (0+32768))
  2149  0D7A  1283               	bcf	3,5	;RP0=0, select bank0
  2150  0D7B  1303               	bcf	3,6	;RP1=0, select bank0
  2151  0D7C  00A0               	movwf	clcd_print@str
  2152  0D7D  3086               	movlw	high (STR_3| (0+32768))
  2153  0D7E  00A1               	movwf	clcd_print@str+1
  2154  0D7F  3090               	movlw	144
  2155  0D80  00A3               	movwf	??_door_status
  2156  0D81  0823               	movf	??_door_status,w
  2157  0D82  00A2               	movwf	clcd_print@addr
  2158  0D83  120A  158A  24BC  120A  158A  	fcall	_clcd_print
  2159  0D88                     l105:	
  2160                           ;main.c: 180: ;main.c: 182: 
  2161                           
  2162                           
  2163                           ;main.c: 179:     door_status();
  2164  0D88  1283               	bcf	3,5	;RP0=0, select bank0
  2165  0D89  1303               	bcf	3,6	;RP1=0, select bank0
  2166  0D8A  1D86               	btfss	6,3	;volatile
  2167  0D8B  2D8D               	goto	u2111
  2168  0D8C  2D8E               	goto	u2110
  2169  0D8D                     u2111:	
  2170  0D8D  2D88               	goto	l105
  2171  0D8E                     u2110:	
  2172  0D8E                     l107:	
  2173                           
  2174                           ;main.c: 183: 
  2175  0D8E  1087               	bcf	7,1	;volatile
  2176                           
  2177                           ;main.c: 184:     clcd_putch(min/10 + '0', (0x80 + 9));
  2178  0D8F  1512               	bsf	18,2	;volatile
  2179                           
  2180                           ;main.c: 185:     clcd_putch(min%10 + '0', (0x80 + 10));
  2181  0D90  1507               	bsf	7,2	;volatile
  2182  0D91                     l2513:	
  2183                           
  2184                           ;main.c: 186:     clcd_putch(':', (0x80 + 11));
  2185  0D91  120A  158A  243D  120A  158A  	fcall	_clear_screen
  2186  0D96                     l108:	
  2187  0D96  0008               	return
  2188  0D97                     __end_of_door_status:	
  2189                           
  2190                           	psect	text3
  2191  0282                     __ptext3:	
  2192 ;; *************** function _set_time *****************
  2193 ;; Defined at:
  2194 ;;		line 345 in file "main.c"
  2195 ;; Parameters:    Size  Location     Type
  2196 ;;  key             1    wreg     unsigned char 
  2197 ;;  reset_flag      2   12[BANK0 ] int 
  2198 ;; Auto vars:     Size  Location     Type
  2199 ;;  key             1   17[BANK0 ] unsigned char 
  2200 ;; Return value:  Size  Location     Type
  2201 ;;                  1    wreg      void 
  2202 ;; Registers used:
  2203 ;;		wreg, fsr0l, fsr0h, status,2, status,0, btemp+1, pclath, cstack
  2204 ;; Tracked objects:
  2205 ;;		On entry : 0/0
  2206 ;;		On exit  : 0/0
  2207 ;;		Unchanged: 0/0
  2208 ;; Data sizes:     COMMON   BANK0   BANK1   BANK3   BANK2
  2209 ;;      Params:         0       2       0       0       0
  2210 ;;      Locals:         0       1       0       0       0
  2211 ;;      Temps:          0       3       0       0       0
  2212 ;;      Totals:         0       6       0       0       0
  2213 ;;Total ram usage:        6 bytes
  2214 ;; Hardware stack levels used:    1
  2215 ;; Hardware stack levels required when called:    3
  2216 ;; This function calls:
  2217 ;;		___awdiv
  2218 ;;		___awmod
  2219 ;;		___bmul
  2220 ;;		_clcd_print
  2221 ;;		_clcd_putch
  2222 ;;		_clear_screen
  2223 ;; This function is called by:
  2224 ;;		_main
  2225 ;; This function uses a non-reentrant model
  2226 ;;
  2227                           
  2228                           
  2229                           ;psect for function _set_time
  2230  0282                     _set_time:	
  2231                           
  2232                           ;incstack = 0
  2233                           ; Regs used in _set_time: [wreg-fsr0h+status,2+status,0+btemp+1+pclath+cstack]
  2234                           ;set_time@key stored from wreg
  2235  0282  1283               	bcf	3,5	;RP0=0, select bank0
  2236  0283  1303               	bcf	3,6	;RP1=0, select bank0
  2237  0284  00B1               	movwf	set_time@key
  2238  0285                     l2587:	
  2239                           
  2240                           ;main.c: 345:         key =0xFF;;main.c: 346:         clcd_print("SET TIME (MM:SS)", (0x
      +                          80 + 0));;main.c: 347:         clcd_print("TIME- ", (0xC0 + 0));;main.c: 348:         cl
      +                          cd_print("*:CLEAR  #:ENTER",(0xD0 + 0));;main.c: 349:     }
  2241  0285  3010               	movlw	16
  2242  0286  062C               	xorwf	set_time@reset_flag,w
  2243  0287  042D               	iorwf	set_time@reset_flag+1,w
  2244  0288  1D03               	btfss	3,2
  2245  0289  2A8B               	goto	u2231
  2246  028A  2A8C               	goto	u2230
  2247  028B                     u2231:	
  2248  028B  2AC2               	goto	l2599
  2249  028C                     u2230:	
  2250  028C                     l2589:	
  2251                           
  2252                           ;main.c: 350: ;main.c: 351: 
  2253  028C  01C0               	clrf	set_time@key_count
  2254                           
  2255                           ;main.c: 352:     if((key!='*')&& (key != '#')&& (key!= 0xFF))
  2256  028D  01C5               	clrf	_sec
  2257                           
  2258                           ;main.c: 353:     {
  2259  028E  01F9               	clrf	_min
  2260                           
  2261                           ;main.c: 354:         key_count++;
  2262  028F  01BF               	clrf	set_time@blink_pos
  2263                           
  2264                           ;main.c: 355:         if(key_count <=2)
  2265  0290  01BA               	clrf	set_time@wait
  2266  0291  01BB               	clrf	set_time@wait+1
  2267                           
  2268                           ;main.c: 356:         {
  2269  0292  01BE               	clrf	set_time@blink
  2270  0293                     l2591:	
  2271                           
  2272                           ;main.c: 357:         sec = sec * 10 + key;
  2273  0293  30FF               	movlw	255
  2274  0294  00AE               	movwf	??_set_time
  2275  0295  082E               	movf	??_set_time,w
  2276  0296  00B1               	movwf	set_time@key
  2277  0297                     l2593:	
  2278                           
  2279                           ;main.c: 358:         blink_pos=0;
  2280  0297  3045               	movlw	low (STR_24| (0+32768))
  2281  0298  00A0               	movwf	clcd_print@str
  2282  0299  3086               	movlw	high (STR_24| (0+32768))
  2283  029A  00A1               	movwf	clcd_print@str+1
  2284  029B  3080               	movlw	128
  2285  029C  00AE               	movwf	??_set_time
  2286  029D  082E               	movf	??_set_time,w
  2287  029E  00A2               	movwf	clcd_print@addr
  2288  029F  120A  158A  24BC  120A  118A  	fcall	_clcd_print
  2289  02A4                     l2595:	
  2290                           
  2291                           ;main.c: 359:         }
  2292  02A4  302D               	movlw	low (STR_25| (0+32768))
  2293  02A5  1283               	bcf	3,5	;RP0=0, select bank0
  2294  02A6  1303               	bcf	3,6	;RP1=0, select bank0
  2295  02A7  00A0               	movwf	clcd_print@str
  2296  02A8  3087               	movlw	high (STR_25| (0+32768))
  2297  02A9  00A1               	movwf	clcd_print@str+1
  2298  02AA  30C0               	movlw	192
  2299  02AB  00AE               	movwf	??_set_time
  2300  02AC  082E               	movf	??_set_time,w
  2301  02AD  00A2               	movwf	clcd_print@addr
  2302  02AE  120A  158A  24BC  120A  118A  	fcall	_clcd_print
  2303  02B3                     l2597:	
  2304                           
  2305                           ;main.c: 360:         else if(key_count >2 && key_count <= 4)
  2306  02B3  3056               	movlw	low (STR_18| (0+32768))
  2307  02B4  1283               	bcf	3,5	;RP0=0, select bank0
  2308  02B5  1303               	bcf	3,6	;RP1=0, select bank0
  2309  02B6  00A0               	movwf	clcd_print@str
  2310  02B7  3086               	movlw	high (STR_18| (0+32768))
  2311  02B8  00A1               	movwf	clcd_print@str+1
  2312  02B9  30D0               	movlw	208
  2313  02BA  00AE               	movwf	??_set_time
  2314  02BB  082E               	movf	??_set_time,w
  2315  02BC  00A2               	movwf	clcd_print@addr
  2316  02BD  120A  158A  24BC  120A  118A  	fcall	_clcd_print
  2317  02C2                     l2599:	
  2318                           
  2319                           ;main.c: 364:         }
  2320  02C2  302A               	movlw	42
  2321  02C3  1283               	bcf	3,5	;RP0=0, select bank0
  2322  02C4  1303               	bcf	3,6	;RP1=0, select bank0
  2323  02C5  0631               	xorwf	set_time@key,w
  2324  02C6  1903               	btfsc	3,2
  2325  02C7  2AC9               	goto	u2241
  2326  02C8  2ACA               	goto	u2240
  2327  02C9                     u2241:	
  2328  02C9  2B10               	goto	l2621
  2329  02CA                     u2240:	
  2330  02CA                     l2601:	
  2331  02CA  3023               	movlw	35
  2332  02CB  0631               	xorwf	set_time@key,w
  2333  02CC  1903               	btfsc	3,2
  2334  02CD  2ACF               	goto	u2251
  2335  02CE  2AD0               	goto	u2250
  2336  02CF                     u2251:	
  2337  02CF  2B10               	goto	l2621
  2338  02D0                     u2250:	
  2339  02D0                     l2603:	
  2340  02D0  0A31               	incf	set_time@key,w
  2341  02D1  1903               	btfsc	3,2
  2342  02D2  2AD4               	goto	u2261
  2343  02D3  2AD5               	goto	u2260
  2344  02D4                     u2261:	
  2345  02D4  2B10               	goto	l2621
  2346  02D5                     u2260:	
  2347  02D5                     l2605:	
  2348                           
  2349                           ;main.c: 365:     };main.c: 366:     else if(key == '*')
  2350  02D5  3001               	movlw	1
  2351  02D6  00AE               	movwf	??_set_time
  2352  02D7  082E               	movf	??_set_time,w
  2353  02D8  07C0               	addwf	set_time@key_count,f
  2354  02D9                     l2607:	
  2355                           
  2356                           ;main.c: 367:     {
  2357  02D9  3003               	movlw	3
  2358  02DA  0240               	subwf	set_time@key_count,w
  2359  02DB  1803               	skipnc
  2360  02DC  2ADE               	goto	u2271
  2361  02DD  2ADF               	goto	u2270
  2362  02DE                     u2271:	
  2363  02DE  2AF1               	goto	l2613
  2364  02DF                     u2270:	
  2365  02DF                     l2609:	
  2366                           
  2367                           ;main.c: 368:         if(blink_pos == 0);main.c: 369:         {
  2368  02DF  300A               	movlw	10
  2369  02E0  00AE               	movwf	??_set_time
  2370  02E1  082E               	movf	??_set_time,w
  2371  02E2  00F3               	movwf	___bmul@multiplicand
  2372  02E3  0845               	movf	_sec,w
  2373  02E4  120A  158A  2463  120A  118A  	fcall	___bmul
  2374  02E9  1283               	bcf	3,5	;RP0=0, select bank0
  2375  02EA  1303               	bcf	3,6	;RP1=0, select bank0
  2376  02EB  0731               	addwf	set_time@key,w
  2377  02EC  00AF               	movwf	??_set_time+1
  2378  02ED  082F               	movf	??_set_time+1,w
  2379  02EE  00C5               	movwf	_sec
  2380  02EF                     l2611:	
  2381                           
  2382                           ;main.c: 370:             sec = 0;
  2383  02EF  01BF               	clrf	set_time@blink_pos
  2384                           
  2385                           ;main.c: 371:             key_count =0;
  2386  02F0  2B3D               	goto	l2645
  2387  02F1                     l2613:	
  2388  02F1  3003               	movlw	3
  2389  02F2  0240               	subwf	set_time@key_count,w
  2390  02F3  1C03               	skipc
  2391  02F4  2AF6               	goto	u2281
  2392  02F5  2AF7               	goto	u2280
  2393  02F6                     u2281:	
  2394  02F6  2B3D               	goto	l2645
  2395  02F7                     u2280:	
  2396  02F7                     l2615:	
  2397  02F7  3005               	movlw	5
  2398  02F8  0240               	subwf	set_time@key_count,w
  2399  02F9  1803               	skipnc
  2400  02FA  2AFC               	goto	u2291
  2401  02FB  2AFD               	goto	u2290
  2402  02FC                     u2291:	
  2403  02FC  2B3D               	goto	l2645
  2404  02FD                     u2290:	
  2405  02FD                     l2617:	
  2406                           
  2407                           ;main.c: 373:         else if(blink_pos == 1);main.c: 374:         {
  2408  02FD  300A               	movlw	10
  2409  02FE  00AE               	movwf	??_set_time
  2410  02FF  082E               	movf	??_set_time,w
  2411  0300  00F3               	movwf	___bmul@multiplicand
  2412  0301  0879               	movf	_min,w
  2413  0302  120A  158A  2463  120A  118A  	fcall	___bmul
  2414  0307  1283               	bcf	3,5	;RP0=0, select bank0
  2415  0308  1303               	bcf	3,6	;RP1=0, select bank0
  2416  0309  0731               	addwf	set_time@key,w
  2417  030A  00AF               	movwf	??_set_time+1
  2418  030B  082F               	movf	??_set_time+1,w
  2419  030C  00F9               	movwf	_min
  2420  030D                     l2619:	
  2421                           
  2422                           ;main.c: 375:             min = 0;
  2423  030D  01BF               	clrf	set_time@blink_pos
  2424  030E  0ABF               	incf	set_time@blink_pos,f
  2425  030F  2B3D               	goto	l2645
  2426  0310                     l2621:	
  2427  0310  302A               	movlw	42
  2428  0311  0631               	xorwf	set_time@key,w
  2429  0312  1D03               	btfss	3,2
  2430  0313  2B15               	goto	u2301
  2431  0314  2B16               	goto	u2300
  2432  0315                     u2301:	
  2433  0315  2B29               	goto	l2633
  2434  0316                     u2300:	
  2435  0316                     l2623:	
  2436                           
  2437                           ;main.c: 379:     else if(key == '#');main.c: 380:     {
  2438  0316  083F               	movf	set_time@blink_pos,w
  2439  0317  1D03               	btfss	3,2
  2440  0318  2B1A               	goto	u2311
  2441  0319  2B1B               	goto	u2310
  2442  031A                     u2311:	
  2443  031A  2B1E               	goto	l2627
  2444  031B                     u2310:	
  2445  031B                     l2625:	
  2446                           
  2447                           ;main.c: 381:        flag = 0;;main.c: 382:        clear_screen();
  2448  031B  01C5               	clrf	_sec
  2449                           
  2450                           ;main.c: 383:        operation_flag = 0x07;
  2451  031C  01C0               	clrf	set_time@key_count
  2452                           
  2453                           ;main.c: 384:        RC2 = 1;
  2454  031D  2B3D               	goto	l2645
  2455  031E                     l2627:	
  2456  031E  033F               	decf	set_time@blink_pos,w
  2457  031F  1D03               	btfss	3,2
  2458  0320  2B22               	goto	u2321
  2459  0321  2B23               	goto	u2320
  2460  0322                     u2321:	
  2461  0322  2B3D               	goto	l2645
  2462  0323                     u2320:	
  2463  0323                     l2629:	
  2464                           
  2465                           ;main.c: 386:        TMR2ON = 1;;main.c: 387:     }
  2466  0323  01F9               	clrf	_min
  2467  0324                     l2631:	
  2468                           
  2469                           ;main.c: 388:     if(wait++ ==15)
  2470  0324  3002               	movlw	2
  2471  0325  00AE               	movwf	??_set_time
  2472  0326  082E               	movf	??_set_time,w
  2473  0327  00C0               	movwf	set_time@key_count
  2474  0328  2B3D               	goto	l2645
  2475  0329                     l2633:	
  2476  0329  3023               	movlw	35
  2477  032A  0631               	xorwf	set_time@key,w
  2478  032B  1D03               	btfss	3,2
  2479  032C  2B2E               	goto	u2331
  2480  032D  2B2F               	goto	u2330
  2481  032E                     u2331:	
  2482  032E  2B3D               	goto	l2645
  2483  032F                     u2330:	
  2484  032F                     l2635:	
  2485                           
  2486                           ;main.c: 392: ;main.c: 393:     clcd_putch(min/10 + '0', (0xC0 + 6));
  2487  032F  01C4               	clrf	_flag
  2488  0330                     l2637:	
  2489                           
  2490                           ;main.c: 394:     clcd_putch(min%10 + '0', (0xC0 + 7));
  2491  0330  120A  158A  243D  120A  118A  	fcall	_clear_screen
  2492  0335                     l2639:	
  2493                           
  2494                           ;main.c: 395:     clcd_putch(':', (0xC0 + 8));
  2495  0335  3007               	movlw	7
  2496  0336  1283               	bcf	3,5	;RP0=0, select bank0
  2497  0337  1303               	bcf	3,6	;RP1=0, select bank0
  2498  0338  00C6               	movwf	_operation_flag
  2499  0339  3000               	movlw	0
  2500  033A  00C7               	movwf	_operation_flag+1
  2501  033B                     l2641:	
  2502                           
  2503                           ;main.c: 396: 
  2504  033B  1507               	bsf	7,2	;volatile
  2505  033C                     l2643:	
  2506                           
  2507                           ;main.c: 398:     clcd_putch(sec%10 + '0', (0xC0 + 10));
  2508  033C  1512               	bsf	18,2	;volatile
  2509  033D                     l2645:	
  2510                           
  2511                           ;main.c: 400:     if(blink)
  2512  033D  3001               	movlw	1
  2513  033E  07BA               	addwf	set_time@wait,f
  2514  033F  1803               	skipnc
  2515  0340  0ABB               	incf	set_time@wait+1,f
  2516  0341  3000               	movlw	0
  2517  0342  07BB               	addwf	set_time@wait+1,f
  2518  0343  3010               	movlw	16
  2519  0344  063A               	xorwf	set_time@wait,w
  2520  0345  043B               	iorwf	set_time@wait+1,w
  2521  0346  1D03               	btfss	3,2
  2522  0347  2B49               	goto	u2341
  2523  0348  2B4A               	goto	u2340
  2524  0349                     u2341:	
  2525  0349  2BD8               	goto	l2661
  2526  034A                     u2340:	
  2527  034A                     l2647:	
  2528                           
  2529                           ;main.c: 401:     {;main.c: 402:         switch(blink_pos)
  2530  034A  01BA               	clrf	set_time@wait
  2531  034B  01BB               	clrf	set_time@wait+1
  2532  034C                     l2649:	
  2533                           
  2534                           ;main.c: 403:         {
  2535  034C  083E               	movf	set_time@blink,w
  2536  034D  1903               	btfsc	3,2
  2537  034E  2B50               	goto	u2351
  2538  034F  2B52               	goto	u2350
  2539  0350                     u2351:	
  2540  0350  3001               	movlw	1
  2541  0351  2B53               	goto	u2360
  2542  0352                     u2350:	
  2543  0352  3000               	movlw	0
  2544  0353                     u2360:	
  2545  0353  00AE               	movwf	??_set_time
  2546  0354  082E               	movf	??_set_time,w
  2547  0355  00BE               	movwf	set_time@blink
  2548  0356                     l2651:	
  2549                           
  2550                           ;main.c: 405:                 clcd_print("  ", (0xC0 + 9));
  2551  0356  30C6               	movlw	198
  2552  0357  00AE               	movwf	??_set_time
  2553  0358  082E               	movf	??_set_time,w
  2554  0359  00AA               	movwf	clcd_putch@addr
  2555  035A  300A               	movlw	10
  2556  035B  00F3               	movwf	___awdiv@divisor
  2557  035C  3000               	movlw	0
  2558  035D  00F4               	movwf	___awdiv@divisor+1
  2559  035E  0879               	movf	_min,w
  2560  035F  00AF               	movwf	??_set_time+1
  2561  0360  01B0               	clrf	??_set_time+2
  2562  0361  082F               	movf	??_set_time+1,w
  2563  0362  00F5               	movwf	___awdiv@dividend
  2564  0363  0830               	movf	??_set_time+2,w
  2565  0364  00F6               	movwf	___awdiv@dividend+1
  2566  0365  120A  158A  2692  120A  118A  	fcall	___awdiv
  2567  036A  0873               	movf	?___awdiv,w
  2568  036B  3E30               	addlw	48
  2569  036C  120A  158A  244E  120A  118A  	fcall	_clcd_putch
  2570  0371                     l2653:	
  2571                           
  2572                           ;main.c: 406:                 break;
  2573  0371  30C7               	movlw	199
  2574  0372  1283               	bcf	3,5	;RP0=0, select bank0
  2575  0373  1303               	bcf	3,6	;RP1=0, select bank0
  2576  0374  00AE               	movwf	??_set_time
  2577  0375  082E               	movf	??_set_time,w
  2578  0376  00AA               	movwf	clcd_putch@addr
  2579  0377  300A               	movlw	10
  2580  0378  00A4               	movwf	___awmod@divisor
  2581  0379  3000               	movlw	0
  2582  037A  00A5               	movwf	___awmod@divisor+1
  2583  037B  0879               	movf	_min,w
  2584  037C  00AF               	movwf	??_set_time+1
  2585  037D  01B0               	clrf	??_set_time+2
  2586  037E  082F               	movf	??_set_time+1,w
  2587  037F  00A6               	movwf	___awmod@dividend
  2588  0380  0830               	movf	??_set_time+2,w
  2589  0381  00A7               	movwf	___awmod@dividend+1
  2590  0382  120A  158A  25D4  120A  118A  	fcall	___awmod
  2591  0387  1283               	bcf	3,5	;RP0=0, select bank0
  2592  0388  1303               	bcf	3,6	;RP1=0, select bank0
  2593  0389  0824               	movf	?___awmod,w
  2594  038A  3E30               	addlw	48
  2595  038B  120A  158A  244E  120A  118A  	fcall	_clcd_putch
  2596  0390                     l2655:	
  2597                           
  2598                           ;main.c: 407:             case 1:
  2599  0390  30C8               	movlw	200
  2600  0391  1283               	bcf	3,5	;RP0=0, select bank0
  2601  0392  1303               	bcf	3,6	;RP1=0, select bank0
  2602  0393  00AE               	movwf	??_set_time
  2603  0394  082E               	movf	??_set_time,w
  2604  0395  00AA               	movwf	clcd_putch@addr
  2605  0396  303A               	movlw	58
  2606  0397  120A  158A  244E  120A  118A  	fcall	_clcd_putch
  2607  039C                     l2657:	
  2608                           
  2609                           ;main.c: 409:                 break;
  2610  039C  30C9               	movlw	201
  2611  039D  1283               	bcf	3,5	;RP0=0, select bank0
  2612  039E  1303               	bcf	3,6	;RP1=0, select bank0
  2613  039F  00AE               	movwf	??_set_time
  2614  03A0  082E               	movf	??_set_time,w
  2615  03A1  00AA               	movwf	clcd_putch@addr
  2616  03A2  300A               	movlw	10
  2617  03A3  00F3               	movwf	___awdiv@divisor
  2618  03A4  3000               	movlw	0
  2619  03A5  00F4               	movwf	___awdiv@divisor+1
  2620  03A6  0845               	movf	_sec,w
  2621  03A7  00AF               	movwf	??_set_time+1
  2622  03A8  01B0               	clrf	??_set_time+2
  2623  03A9  082F               	movf	??_set_time+1,w
  2624  03AA  00F5               	movwf	___awdiv@dividend
  2625  03AB  0830               	movf	??_set_time+2,w
  2626  03AC  00F6               	movwf	___awdiv@dividend+1
  2627  03AD  120A  158A  2692  120A  118A  	fcall	___awdiv
  2628  03B2  0873               	movf	?___awdiv,w
  2629  03B3  3E30               	addlw	48
  2630  03B4  120A  158A  244E  120A  118A  	fcall	_clcd_putch
  2631  03B9                     l2659:	
  2632                           
  2633                           ;main.c: 410: 
  2634  03B9  30CA               	movlw	202
  2635  03BA  1283               	bcf	3,5	;RP0=0, select bank0
  2636  03BB  1303               	bcf	3,6	;RP1=0, select bank0
  2637  03BC  00AE               	movwf	??_set_time
  2638  03BD  082E               	movf	??_set_time,w
  2639  03BE  00AA               	movwf	clcd_putch@addr
  2640  03BF  300A               	movlw	10
  2641  03C0  00A4               	movwf	___awmod@divisor
  2642  03C1  3000               	movlw	0
  2643  03C2  00A5               	movwf	___awmod@divisor+1
  2644  03C3  0845               	movf	_sec,w
  2645  03C4  00AF               	movwf	??_set_time+1
  2646  03C5  01B0               	clrf	??_set_time+2
  2647  03C6  082F               	movf	??_set_time+1,w
  2648  03C7  00A6               	movwf	___awmod@dividend
  2649  03C8  0830               	movf	??_set_time+2,w
  2650  03C9  00A7               	movwf	___awmod@dividend+1
  2651  03CA  120A  158A  25D4  120A  118A  	fcall	___awmod
  2652  03CF  1283               	bcf	3,5	;RP0=0, select bank0
  2653  03D0  1303               	bcf	3,6	;RP1=0, select bank0
  2654  03D1  0824               	movf	?___awmod,w
  2655  03D2  3E30               	addlw	48
  2656  03D3  120A  158A  244E  120A  118A  	fcall	_clcd_putch
  2657  03D8                     l2661:	
  2658                           
  2659                           ;main.c: 412: 
  2660  03D8  1283               	bcf	3,5	;RP0=0, select bank0
  2661  03D9  1303               	bcf	3,6	;RP1=0, select bank0
  2662  03DA  083E               	movf	set_time@blink,w
  2663  03DB  1903               	btfsc	3,2
  2664  03DC  2BDE               	goto	u2371
  2665  03DD  2BDF               	goto	u2370
  2666  03DE                     u2371:	
  2667  03DE  2C0C               	goto	l183
  2668  03DF                     u2370:	
  2669  03DF  2BFC               	goto	l2671
  2670  03E0                     l2665:	
  2671                           
  2672                           ;main.c: 417: 
  2673  03E0  3035               	movlw	low ((STR_23+1)| (0+32768))
  2674  03E1  00A0               	movwf	clcd_print@str
  2675  03E2  3087               	movlw	high ((STR_23+1)| (0+32768))
  2676  03E3  00A1               	movwf	clcd_print@str+1
  2677  03E4  30C9               	movlw	201
  2678  03E5  00AE               	movwf	??_set_time
  2679  03E6  082E               	movf	??_set_time,w
  2680  03E7  00A2               	movwf	clcd_print@addr
  2681  03E8  120A  158A  24BC  120A  118A  	fcall	_clcd_print
  2682                           
  2683                           ;main.c: 418: 
  2684  03ED  2C0C               	goto	l183
  2685  03EE                     l2667:	
  2686                           
  2687                           ;main.c: 420: }
  2688  03EE  3035               	movlw	low ((STR_23+1)| (0+32768))
  2689  03EF  00A0               	movwf	clcd_print@str
  2690  03F0  3087               	movlw	high ((STR_23+1)| (0+32768))
  2691  03F1  00A1               	movwf	clcd_print@str+1
  2692  03F2  30C6               	movlw	198
  2693  03F3  00AE               	movwf	??_set_time
  2694  03F4  082E               	movf	??_set_time,w
  2695  03F5  00A2               	movwf	clcd_print@addr
  2696  03F6  120A  158A  24BC  120A  118A  	fcall	_clcd_print
  2697  03FB  2C0C               	goto	l183
  2698  03FC                     l2671:	
  2699  03FC  083F               	movf	set_time@blink_pos,w
  2700  03FD  00AE               	movwf	??_set_time
  2701  03FE  01AF               	clrf	??_set_time+1
  2702                           
  2703                           ; Switch on 2 bytes has been partitioned into a top level switch of size 1, and 1 sub-sw
      +                          itches
  2704                           ; Switch size 1, requested type "simple"
  2705                           ; Number of cases is 1, Range of values is 0 to 0
  2706                           ; switch strategies available:
  2707                           ; Name         Instructions Cycles
  2708                           ; simple_byte            4     3 (average)
  2709                           ; direct_byte           11     8 (fixed)
  2710                           ; jumptable            260     6 (fixed)
  2711                           ;	Chosen strategy is simple_byte
  2712  03FF  082F               	movf	??_set_time+1,w
  2713  0400  3A00               	xorlw	0	; case 0
  2714  0401  1903               	skipnz
  2715  0402  2C04               	goto	l2993
  2716  0403  2C0C               	goto	l183
  2717  0404                     l2993:	
  2718                           
  2719                           ; Switch size 1, requested type "simple"
  2720                           ; Number of cases is 2, Range of values is 0 to 1
  2721                           ; switch strategies available:
  2722                           ; Name         Instructions Cycles
  2723                           ; simple_byte            7     4 (average)
  2724                           ; direct_byte           14     8 (fixed)
  2725                           ; jumptable            260     6 (fixed)
  2726                           ;	Chosen strategy is simple_byte
  2727  0404  082E               	movf	??_set_time,w
  2728  0405  3A00               	xorlw	0	; case 0
  2729  0406  1903               	skipnz
  2730  0407  2BE0               	goto	l2665
  2731  0408  3A01               	xorlw	1	; case 1
  2732  0409  1903               	skipnz
  2733  040A  2BEE               	goto	l2667
  2734  040B  2C0C               	goto	l183
  2735  040C                     l183:	
  2736  040C  0008               	return
  2737  040D                     __end_of_set_time:	
  2738                           
  2739                           	psect	text4
  2740  0034                     __ptext4:	
  2741 ;; *************** function _set_temp *****************
  2742 ;; Defined at:
  2743 ;;		line 257 in file "main.c"
  2744 ;; Parameters:    Size  Location     Type
  2745 ;;  key             1    wreg     unsigned char 
  2746 ;;  reset_flag      2   12[BANK0 ] int 
  2747 ;; Auto vars:     Size  Location     Type
  2748 ;;  key             1   17[BANK0 ] unsigned char 
  2749 ;; Return value:  Size  Location     Type
  2750 ;;                  1    wreg      void 
  2751 ;; Registers used:
  2752 ;;		wreg, fsr0l, fsr0h, status,2, status,0, btemp+1, pclath, cstack
  2753 ;; Tracked objects:
  2754 ;;		On entry : 0/0
  2755 ;;		On exit  : 0/0
  2756 ;;		Unchanged: 0/0
  2757 ;; Data sizes:     COMMON   BANK0   BANK1   BANK3   BANK2
  2758 ;;      Params:         0       2       0       0       0
  2759 ;;      Locals:         0       1       0       0       0
  2760 ;;      Temps:          0       3       0       0       0
  2761 ;;      Totals:         0       6       0       0       0
  2762 ;;Total ram usage:        6 bytes
  2763 ;; Hardware stack levels used:    1
  2764 ;; Hardware stack levels required when called:    3
  2765 ;; This function calls:
  2766 ;;		___awdiv
  2767 ;;		___awmod
  2768 ;;		___bmul
  2769 ;;		_clcd_print
  2770 ;;		_clcd_putch
  2771 ;;		_clear_screen
  2772 ;; This function is called by:
  2773 ;;		_main
  2774 ;; This function uses a non-reentrant model
  2775 ;;
  2776                           
  2777                           
  2778                           ;psect for function _set_temp
  2779  0034                     _set_temp:	
  2780                           
  2781                           ;incstack = 0
  2782                           ; Regs used in _set_temp: [wreg-fsr0h+status,2+status,0+btemp+1+pclath+cstack]
  2783                           ;set_temp@key stored from wreg
  2784  0034  1283               	bcf	3,5	;RP0=0, select bank0
  2785  0035  1303               	bcf	3,6	;RP1=0, select bank0
  2786  0036  00B1               	movwf	set_temp@key
  2787  0037                     l2677:	
  2788                           
  2789                           ;main.c: 257:         clcd_putch(0xDF, (0x80 + 10));;main.c: 258:         clcd_print("TE
      +                          MP = ", (0xC0 + 0));;main.c: 259:         clcd_print("(LIMIT : 180 C) ", (0x90 + 0));;ma
      +                          in.c: 260:         clcd_putch(0xDF, (0x90 + 12));;main.c: 261:         clcd_print("*:CLE
      +                          AR  #:ENTER",(0xD0 + 0));
  2790  0037  3010               	movlw	16
  2791  0038  062C               	xorwf	set_temp@reset_flag,w
  2792  0039  042D               	iorwf	set_temp@reset_flag+1,w
  2793  003A  1D03               	btfss	3,2
  2794  003B  283D               	goto	u2381
  2795  003C  283E               	goto	u2380
  2796  003D                     u2381:	
  2797  003D  2899               	goto	l2695
  2798  003E                     u2380:	
  2799  003E                     l2679:	
  2800                           
  2801                           ;main.c: 262:     };main.c: 263:        if((key!='*')&& (key != '#')&& (key!= 0xFF))
  2802  003E  01C3               	clrf	set_temp@key_count
  2803                           
  2804                           ;main.c: 264:     {
  2805  003F  01BC               	clrf	set_temp@wait
  2806  0040  01BD               	clrf	set_temp@wait+1
  2807                           
  2808                           ;main.c: 265:         key_count++;
  2809  0041  01C2               	clrf	set_temp@blink
  2810                           
  2811                           ;main.c: 266:         if(key_count <=3)
  2812  0042  01C1               	clrf	set_temp@temp
  2813  0043                     l2681:	
  2814                           
  2815                           ;main.c: 267:         {
  2816  0043  30FF               	movlw	255
  2817  0044  00AE               	movwf	??_set_temp
  2818  0045  082E               	movf	??_set_temp,w
  2819  0046  00B1               	movwf	set_temp@key
  2820  0047                     l2683:	
  2821                           
  2822                           ;main.c: 268:         temp = temp * 10 + key;
  2823  0047  3097               	movlw	low (STR_15| (0+32768))
  2824  0048  00A0               	movwf	clcd_print@str
  2825  0049  3086               	movlw	high (STR_15| (0+32768))
  2826  004A  00A1               	movwf	clcd_print@str+1
  2827  004B  3080               	movlw	128
  2828  004C  00AE               	movwf	??_set_temp
  2829  004D  082E               	movf	??_set_temp,w
  2830  004E  00A2               	movwf	clcd_print@addr
  2831  004F  120A  158A  24BC  120A  118A  	fcall	_clcd_print
  2832  0054                     l2685:	
  2833                           
  2834                           ;main.c: 269:         }
  2835  0054  308A               	movlw	138
  2836  0055  1283               	bcf	3,5	;RP0=0, select bank0
  2837  0056  1303               	bcf	3,6	;RP1=0, select bank0
  2838  0057  00AE               	movwf	??_set_temp
  2839  0058  082E               	movf	??_set_temp,w
  2840  0059  00AA               	movwf	clcd_putch@addr
  2841  005A  30DF               	movlw	223
  2842  005B  120A  158A  244E  120A  118A  	fcall	_clcd_putch
  2843  0060                     l2687:	
  2844                           
  2845                           ;main.c: 270:     }
  2846  0060  3005               	movlw	low (STR_16| (0+32768))
  2847  0061  1283               	bcf	3,5	;RP0=0, select bank0
  2848  0062  1303               	bcf	3,6	;RP1=0, select bank0
  2849  0063  00A0               	movwf	clcd_print@str
  2850  0064  3087               	movlw	high (STR_16| (0+32768))
  2851  0065  00A1               	movwf	clcd_print@str+1
  2852  0066  30C0               	movlw	192
  2853  0067  00AE               	movwf	??_set_temp
  2854  0068  082E               	movf	??_set_temp,w
  2855  0069  00A2               	movwf	clcd_print@addr
  2856  006A  120A  158A  24BC  120A  118A  	fcall	_clcd_print
  2857  006F                     l2689:	
  2858                           
  2859                           ;main.c: 271:     else if(key == '*')
  2860  006F  3023               	movlw	low (STR_17| (0+32768))
  2861  0070  1283               	bcf	3,5	;RP0=0, select bank0
  2862  0071  1303               	bcf	3,6	;RP1=0, select bank0
  2863  0072  00A0               	movwf	clcd_print@str
  2864  0073  3086               	movlw	high (STR_17| (0+32768))
  2865  0074  00A1               	movwf	clcd_print@str+1
  2866  0075  3090               	movlw	144
  2867  0076  00AE               	movwf	??_set_temp
  2868  0077  082E               	movf	??_set_temp,w
  2869  0078  00A2               	movwf	clcd_print@addr
  2870  0079  120A  158A  24BC  120A  118A  	fcall	_clcd_print
  2871  007E                     l2691:	
  2872                           
  2873                           ;main.c: 272:     {
  2874  007E  309C               	movlw	156
  2875  007F  1283               	bcf	3,5	;RP0=0, select bank0
  2876  0080  1303               	bcf	3,6	;RP1=0, select bank0
  2877  0081  00AE               	movwf	??_set_temp
  2878  0082  082E               	movf	??_set_temp,w
  2879  0083  00AA               	movwf	clcd_putch@addr
  2880  0084  30DF               	movlw	223
  2881  0085  120A  158A  244E  120A  118A  	fcall	_clcd_putch
  2882  008A                     l2693:	
  2883                           
  2884                           ;main.c: 273:         temp=0;
  2885  008A  3056               	movlw	low (STR_18| (0+32768))
  2886  008B  1283               	bcf	3,5	;RP0=0, select bank0
  2887  008C  1303               	bcf	3,6	;RP1=0, select bank0
  2888  008D  00A0               	movwf	clcd_print@str
  2889  008E  3086               	movlw	high (STR_18| (0+32768))
  2890  008F  00A1               	movwf	clcd_print@str+1
  2891  0090  30D0               	movlw	208
  2892  0091  00AE               	movwf	??_set_temp
  2893  0092  082E               	movf	??_set_temp,w
  2894  0093  00A2               	movwf	clcd_print@addr
  2895  0094  120A  158A  24BC  120A  118A  	fcall	_clcd_print
  2896  0099                     l2695:	
  2897                           
  2898                           ;main.c: 275:     }
  2899  0099  302A               	movlw	42
  2900  009A  1283               	bcf	3,5	;RP0=0, select bank0
  2901  009B  1303               	bcf	3,6	;RP1=0, select bank0
  2902  009C  0631               	xorwf	set_temp@key,w
  2903  009D  1903               	btfsc	3,2
  2904  009E  28A0               	goto	u2391
  2905  009F  28A1               	goto	u2390
  2906  00A0                     u2391:	
  2907  00A0  28C8               	goto	l2707
  2908  00A1                     u2390:	
  2909  00A1                     l2697:	
  2910  00A1  3023               	movlw	35
  2911  00A2  0631               	xorwf	set_temp@key,w
  2912  00A3  1903               	btfsc	3,2
  2913  00A4  28A6               	goto	u2401
  2914  00A5  28A7               	goto	u2400
  2915  00A6                     u2401:	
  2916  00A6  28C8               	goto	l2707
  2917  00A7                     u2400:	
  2918  00A7                     l2699:	
  2919  00A7  0A31               	incf	set_temp@key,w
  2920  00A8  1903               	btfsc	3,2
  2921  00A9  28AB               	goto	u2411
  2922  00AA  28AC               	goto	u2410
  2923  00AB                     u2411:	
  2924  00AB  28C8               	goto	l2707
  2925  00AC                     u2410:	
  2926  00AC                     l2701:	
  2927                           
  2928                           ;main.c: 276:     else if(key == '#');main.c: 277:     {
  2929  00AC  3001               	movlw	1
  2930  00AD  00AE               	movwf	??_set_temp
  2931  00AE  082E               	movf	??_set_temp,w
  2932  00AF  07C3               	addwf	set_temp@key_count,f
  2933  00B0                     l2703:	
  2934                           
  2935                           ;main.c: 278:         if(temp > 180 || temp==0)
  2936  00B0  3004               	movlw	4
  2937  00B1  0243               	subwf	set_temp@key_count,w
  2938  00B2  1803               	skipnc
  2939  00B3  28B5               	goto	u2421
  2940  00B4  28B6               	goto	u2420
  2941  00B5                     u2421:	
  2942  00B5  29EC               	goto	l2767
  2943  00B6                     u2420:	
  2944  00B6                     l2705:	
  2945                           
  2946                           ;main.c: 279:         {;main.c: 280:             clear_screen();
  2947  00B6  300A               	movlw	10
  2948  00B7  00AE               	movwf	??_set_temp
  2949  00B8  082E               	movf	??_set_temp,w
  2950  00B9  00F3               	movwf	___bmul@multiplicand
  2951  00BA  0841               	movf	set_temp@temp,w
  2952  00BB  120A  158A  2463  120A  118A  	fcall	___bmul
  2953  00C0  1283               	bcf	3,5	;RP0=0, select bank0
  2954  00C1  1303               	bcf	3,6	;RP1=0, select bank0
  2955  00C2  0731               	addwf	set_temp@key,w
  2956  00C3  00AF               	movwf	??_set_temp+1
  2957  00C4  082F               	movf	??_set_temp+1,w
  2958  00C5  00C1               	movwf	set_temp@temp
  2959  00C6  29EC               	goto	l2767
  2960  00C7                     l138:	
  2961                           ;main.c: 281:             clcd_print("  Temp. Invalid  ", (0xC0 + 0));
  2962                           
  2963                           
  2964                           ;main.c: 282:             _delay((unsigned long)((2000)*(20000000/4000.0)));
  2965  00C7  29EC               	goto	l2767
  2966  00C8                     l2707:	
  2967  00C8  302A               	movlw	42
  2968  00C9  0631               	xorwf	set_temp@key,w
  2969  00CA  1D03               	btfss	3,2
  2970  00CB  28CD               	goto	u2431
  2971  00CC  28CE               	goto	u2430
  2972  00CD                     u2431:	
  2973  00CD  28D1               	goto	l2711
  2974  00CE                     u2430:	
  2975  00CE                     l2709:	
  2976                           
  2977                           ;main.c: 284:             operation_flag = 0x02;;main.c: 285:         }
  2978  00CE  01C1               	clrf	set_temp@temp
  2979                           
  2980                           ;main.c: 286:         else if(temp <= 180 && temp!=0)
  2981  00CF  01C3               	clrf	set_temp@key_count
  2982                           
  2983                           ;main.c: 287:         {
  2984  00D0  29EC               	goto	l2767
  2985  00D1                     l2711:	
  2986  00D1  3023               	movlw	35
  2987  00D2  0631               	xorwf	set_temp@key,w
  2988  00D3  1D03               	btfss	3,2
  2989  00D4  28D6               	goto	u2441
  2990  00D5  28D7               	goto	u2440
  2991  00D6                     u2441:	
  2992  00D6  29EC               	goto	l2767
  2993  00D7                     u2440:	
  2994  00D7                     l2713:	
  2995                           
  2996                           ;main.c: 289: ;main.c: 290:         clcd_print("  Pre-Heating  ", (0x80 + 0));
  2997  00D7  30B5               	movlw	181
  2998  00D8  0241               	subwf	set_temp@temp,w
  2999  00D9  1803               	skipnc
  3000  00DA  28DC               	goto	u2451
  3001  00DB  28DD               	goto	u2450
  3002  00DC                     u2451:	
  3003  00DC  28E2               	goto	l2717
  3004  00DD                     u2450:	
  3005  00DD                     l2715:	
  3006  00DD  0841               	movf	set_temp@temp,w
  3007  00DE  1D03               	btfss	3,2
  3008  00DF  28E1               	goto	u2461
  3009  00E0  28E2               	goto	u2460
  3010  00E1                     u2461:	
  3011  00E1  2910               	goto	l2727
  3012  00E2                     u2460:	
  3013  00E2                     l2717:	
  3014                           
  3015                           ;main.c: 291:         clcd_print(" Time Rem.= ", (0x90 + 0));;main.c: 292:         RC2 =
      +                           1;
  3016  00E2  120A  158A  243D  120A  118A  	fcall	_clear_screen
  3017  00E7                     l2719:	
  3018                           
  3019                           ;main.c: 293:         TMR2ON = 1;
  3020  00E7  3000               	movlw	low (STR_19| (0+32768))
  3021  00E8  1283               	bcf	3,5	;RP0=0, select bank0
  3022  00E9  1303               	bcf	3,6	;RP1=0, select bank0
  3023  00EA  00A0               	movwf	clcd_print@str
  3024  00EB  3086               	movlw	high (STR_19| (0+32768))
  3025  00EC  00A1               	movwf	clcd_print@str+1
  3026  00ED  30C0               	movlw	192
  3027  00EE  00AE               	movwf	??_set_temp
  3028  00EF  082E               	movf	??_set_temp,w
  3029  00F0  00A2               	movwf	clcd_print@addr
  3030  00F1  120A  158A  24BC  120A  118A  	fcall	_clcd_print
  3031  00F6                     l2721:	
  3032                           
  3033                           ;main.c: 294:         sec = 180;
  3034  00F6  3033               	movlw	51
  3035  00F7  1283               	bcf	3,5	;RP0=0, select bank0
  3036  00F8  1303               	bcf	3,6	;RP1=0, select bank0
  3037  00F9  00B0               	movwf	??_set_temp+2
  3038  00FA  30BB               	movlw	187
  3039  00FB  00AF               	movwf	??_set_temp+1
  3040  00FC  30DF               	movlw	223
  3041  00FD  00AE               	movwf	??_set_temp
  3042  00FE                     u2757:	
  3043  00FE  0BAE               	decfsz	??_set_temp,f
  3044  00FF  28FE               	goto	u2757
  3045  0100  0BAF               	decfsz	??_set_temp+1,f
  3046  0101  28FE               	goto	u2757
  3047  0102  0BB0               	decfsz	??_set_temp+2,f
  3048  0103  28FE               	goto	u2757
  3049  0104                     l2723:	
  3050                           
  3051                           ;main.c: 295:         while(sec!=0)
  3052  0104  120A  158A  243D  120A  118A  	fcall	_clear_screen
  3053  0109                     l2725:	
  3054                           
  3055                           ;main.c: 296:         {
  3056  0109  3002               	movlw	2
  3057  010A  1283               	bcf	3,5	;RP0=0, select bank0
  3058  010B  1303               	bcf	3,6	;RP1=0, select bank0
  3059  010C  00C6               	movwf	_operation_flag
  3060  010D  3000               	movlw	0
  3061  010E  00C7               	movwf	_operation_flag+1
  3062                           
  3063                           ;main.c: 297: 
  3064  010F  29EC               	goto	l2767
  3065  0110                     l2727:	
  3066  0110  30B5               	movlw	181
  3067  0111  0241               	subwf	set_temp@temp,w
  3068  0112  1803               	skipnc
  3069  0113  2915               	goto	u2471
  3070  0114  2916               	goto	u2470
  3071  0115                     u2471:	
  3072  0115  29EC               	goto	l2767
  3073  0116                     u2470:	
  3074  0116                     l2729:	
  3075  0116  0841               	movf	set_temp@temp,w
  3076  0117  1903               	btfsc	3,2
  3077  0118  291A               	goto	u2481
  3078  0119  291B               	goto	u2480
  3079  011A                     u2481:	
  3080  011A  29EC               	goto	l2767
  3081  011B                     u2480:	
  3082  011B                     l2731:	
  3083                           
  3084                           ;main.c: 299:         clcd_putch((sec/10)%10 + '0', (0x90 + 12));;main.c: 300:         c
      +                          lcd_putch((sec%10) + '0', (0x90 + 13));
  3085  011B  120A  158A  243D  120A  118A  	fcall	_clear_screen
  3086  0120                     l2733:	
  3087                           
  3088                           ;main.c: 302:         if(sec == 0)
  3089  0120  3077               	movlw	low (STR_20| (0+32768))
  3090  0121  1283               	bcf	3,5	;RP0=0, select bank0
  3091  0122  1303               	bcf	3,6	;RP1=0, select bank0
  3092  0123  00A0               	movwf	clcd_print@str
  3093  0124  3086               	movlw	high (STR_20| (0+32768))
  3094  0125  00A1               	movwf	clcd_print@str+1
  3095  0126  3080               	movlw	128
  3096  0127  00AE               	movwf	??_set_temp
  3097  0128  082E               	movf	??_set_temp,w
  3098  0129  00A2               	movwf	clcd_print@addr
  3099  012A  120A  158A  24BC  120A  118A  	fcall	_clcd_print
  3100  012F                     l2735:	
  3101                           
  3102                           ;main.c: 303:         {
  3103  012F  30B5               	movlw	low (STR_21| (0+32768))
  3104  0130  1283               	bcf	3,5	;RP0=0, select bank0
  3105  0131  1303               	bcf	3,6	;RP1=0, select bank0
  3106  0132  00A0               	movwf	clcd_print@str
  3107  0133  3086               	movlw	high (STR_21| (0+32768))
  3108  0134  00A1               	movwf	clcd_print@str+1
  3109  0135  3090               	movlw	144
  3110  0136  00AE               	movwf	??_set_temp
  3111  0137  082E               	movf	??_set_temp,w
  3112  0138  00A2               	movwf	clcd_print@addr
  3113  0139  120A  158A  24BC  120A  118A  	fcall	_clcd_print
  3114  013E                     l2737:	
  3115                           
  3116                           ;main.c: 304:            flag = 1;
  3117  013E  1283               	bcf	3,5	;RP0=0, select bank0
  3118  013F  1303               	bcf	3,6	;RP1=0, select bank0
  3119  0140  1507               	bsf	7,2	;volatile
  3120  0141                     l2739:	
  3121                           
  3122                           ;main.c: 305:            clear_screen();
  3123  0141  1512               	bsf	18,2	;volatile
  3124  0142                     l2741:	
  3125                           
  3126                           ;main.c: 306:            clcd_print("  Set the Time  ", (0xC0 + 0));
  3127  0142  30B4               	movlw	180
  3128  0143  00AE               	movwf	??_set_temp
  3129  0144  082E               	movf	??_set_temp,w
  3130  0145  00C5               	movwf	_sec
  3131                           
  3132                           ;main.c: 307:            RC1 = 1;
  3133  0146  29AF               	goto	l2745
  3134  0147                     l2743:	
  3135                           
  3136                           ;main.c: 308:            _delay((unsigned long)((3000)*(20000000/4000.0)));;main.c: 310:
      +                                      RC2 = 0;
  3137  0147  309B               	movlw	155
  3138  0148  00AE               	movwf	??_set_temp
  3139  0149  082E               	movf	??_set_temp,w
  3140  014A  00AA               	movwf	clcd_putch@addr
  3141  014B  3064               	movlw	100
  3142  014C  00F3               	movwf	___awdiv@divisor
  3143  014D  3000               	movlw	0
  3144  014E  00F4               	movwf	___awdiv@divisor+1
  3145  014F  0845               	movf	_sec,w
  3146  0150  00AF               	movwf	??_set_temp+1
  3147  0151  01B0               	clrf	??_set_temp+2
  3148  0152  082F               	movf	??_set_temp+1,w
  3149  0153  00F5               	movwf	___awdiv@dividend
  3150  0154  0830               	movf	??_set_temp+2,w
  3151  0155  00F6               	movwf	___awdiv@dividend+1
  3152  0156  120A  158A  2692  120A  118A  	fcall	___awdiv
  3153  015B  0873               	movf	?___awdiv,w
  3154  015C  3E30               	addlw	48
  3155  015D  120A  158A  244E  120A  118A  	fcall	_clcd_putch
  3156                           
  3157                           ;main.c: 311:            RC1 = 0;
  3158  0162  309C               	movlw	156
  3159  0163  1283               	bcf	3,5	;RP0=0, select bank0
  3160  0164  1303               	bcf	3,6	;RP1=0, select bank0
  3161  0165  00AE               	movwf	??_set_temp
  3162  0166  082E               	movf	??_set_temp,w
  3163  0167  00AA               	movwf	clcd_putch@addr
  3164  0168  300A               	movlw	10
  3165  0169  00A4               	movwf	___awmod@divisor
  3166  016A  3000               	movlw	0
  3167  016B  00A5               	movwf	___awmod@divisor+1
  3168  016C  300A               	movlw	10
  3169  016D  00F3               	movwf	___awdiv@divisor
  3170  016E  3000               	movlw	0
  3171  016F  00F4               	movwf	___awdiv@divisor+1
  3172  0170  0845               	movf	_sec,w
  3173  0171  00AF               	movwf	??_set_temp+1
  3174  0172  01B0               	clrf	??_set_temp+2
  3175  0173  082F               	movf	??_set_temp+1,w
  3176  0174  00F5               	movwf	___awdiv@dividend
  3177  0175  0830               	movf	??_set_temp+2,w
  3178  0176  00F6               	movwf	___awdiv@dividend+1
  3179  0177  120A  158A  2692  120A  118A  	fcall	___awdiv
  3180  017C  0874               	movf	?___awdiv+1,w
  3181  017D  1283               	bcf	3,5	;RP0=0, select bank0
  3182  017E  1303               	bcf	3,6	;RP1=0, select bank0
  3183  017F  00A7               	movwf	___awmod@dividend+1
  3184  0180  0873               	movf	?___awdiv,w
  3185  0181  00A6               	movwf	___awmod@dividend
  3186  0182  120A  158A  25D4  120A  118A  	fcall	___awmod
  3187  0187  1283               	bcf	3,5	;RP0=0, select bank0
  3188  0188  1303               	bcf	3,6	;RP1=0, select bank0
  3189  0189  0824               	movf	?___awmod,w
  3190  018A  3E30               	addlw	48
  3191  018B  120A  158A  244E  120A  118A  	fcall	_clcd_putch
  3192                           
  3193                           ;main.c: 312:            TMR2ON = 0;
  3194  0190  309D               	movlw	157
  3195  0191  1283               	bcf	3,5	;RP0=0, select bank0
  3196  0192  1303               	bcf	3,6	;RP1=0, select bank0
  3197  0193  00AE               	movwf	??_set_temp
  3198  0194  082E               	movf	??_set_temp,w
  3199  0195  00AA               	movwf	clcd_putch@addr
  3200  0196  300A               	movlw	10
  3201  0197  00A4               	movwf	___awmod@divisor
  3202  0198  3000               	movlw	0
  3203  0199  00A5               	movwf	___awmod@divisor+1
  3204  019A  0845               	movf	_sec,w
  3205  019B  00AF               	movwf	??_set_temp+1
  3206  019C  01B0               	clrf	??_set_temp+2
  3207  019D  082F               	movf	??_set_temp+1,w
  3208  019E  00A6               	movwf	___awmod@dividend
  3209  019F  0830               	movf	??_set_temp+2,w
  3210  01A0  00A7               	movwf	___awmod@dividend+1
  3211  01A1  120A  158A  25D4  120A  118A  	fcall	___awmod
  3212  01A6  1283               	bcf	3,5	;RP0=0, select bank0
  3213  01A7  1303               	bcf	3,6	;RP1=0, select bank0
  3214  01A8  0824               	movf	?___awmod,w
  3215  01A9  3E30               	addlw	48
  3216  01AA  120A  158A  244E  120A  118A  	fcall	_clcd_putch
  3217  01AF                     l2745:	
  3218                           
  3219                           ;main.c: 307:            RC1 = 1;
  3220  01AF  1283               	bcf	3,5	;RP0=0, select bank0
  3221  01B0  1303               	bcf	3,6	;RP1=0, select bank0
  3222  01B1  0845               	movf	_sec,w
  3223  01B2  1D03               	btfss	3,2
  3224  01B3  29B5               	goto	u2491
  3225  01B4  29B6               	goto	u2490
  3226  01B5                     u2491:	
  3227  01B5  2947               	goto	l2743
  3228  01B6                     u2490:	
  3229  01B6                     l2747:	
  3230                           
  3231                           ;main.c: 314:         }
  3232  01B6  0845               	movf	_sec,w
  3233  01B7  1D03               	btfss	3,2
  3234  01B8  29BA               	goto	u2501
  3235  01B9  29BB               	goto	u2500
  3236  01BA                     u2501:	
  3237  01BA  28C7               	goto	l138
  3238  01BB                     u2500:	
  3239  01BB                     l2749:	
  3240                           
  3241                           ;main.c: 315:         };main.c: 316:     }
  3242  01BB  01C4               	clrf	_flag
  3243  01BC  0AC4               	incf	_flag,f
  3244  01BD                     l2751:	
  3245                           
  3246                           ;main.c: 317:     if(wait++ ==15)
  3247  01BD  120A  158A  243D  120A  118A  	fcall	_clear_screen
  3248  01C2                     l2753:	
  3249                           
  3250                           ;main.c: 318:     {
  3251  01C2  3012               	movlw	low (STR_22| (0+32768))
  3252  01C3  1283               	bcf	3,5	;RP0=0, select bank0
  3253  01C4  1303               	bcf	3,6	;RP1=0, select bank0
  3254  01C5  00A0               	movwf	clcd_print@str
  3255  01C6  3086               	movlw	high (STR_22| (0+32768))
  3256  01C7  00A1               	movwf	clcd_print@str+1
  3257  01C8  30C0               	movlw	192
  3258  01C9  00AE               	movwf	??_set_temp
  3259  01CA  082E               	movf	??_set_temp,w
  3260  01CB  00A2               	movwf	clcd_print@addr
  3261  01CC  120A  158A  24BC  120A  118A  	fcall	_clcd_print
  3262  01D1                     l2755:	
  3263                           
  3264                           ;main.c: 319:         wait =0;
  3265  01D1  1283               	bcf	3,5	;RP0=0, select bank0
  3266  01D2  1303               	bcf	3,6	;RP1=0, select bank0
  3267  01D3  1487               	bsf	7,1	;volatile
  3268  01D4                     l2757:	
  3269                           
  3270                           ;main.c: 320:         blink =!blink;
  3271  01D4  304D               	movlw	77
  3272  01D5  1283               	bcf	3,5	;RP0=0, select bank0
  3273  01D6  1303               	bcf	3,6	;RP1=0, select bank0
  3274  01D7  00B0               	movwf	??_set_temp+2
  3275  01D8  3019               	movlw	25
  3276  01D9  00AF               	movwf	??_set_temp+1
  3277  01DA  304F               	movlw	79
  3278  01DB  00AE               	movwf	??_set_temp
  3279  01DC                     u2767:	
  3280  01DC  0BAE               	decfsz	??_set_temp,f
  3281  01DD  29DC               	goto	u2767
  3282  01DE  0BAF               	decfsz	??_set_temp+1,f
  3283  01DF  29DC               	goto	u2767
  3284  01E0  0BB0               	decfsz	??_set_temp+2,f
  3285  01E1  29DC               	goto	u2767
  3286  01E2                     l2759:	
  3287                           
  3288                           ;main.c: 321: 
  3289  01E2  120A  158A  243D  120A  118A  	fcall	_clear_screen
  3290  01E7                     l2761:	
  3291                           
  3292                           ;main.c: 322: 
  3293  01E7  1283               	bcf	3,5	;RP0=0, select bank0
  3294  01E8  1303               	bcf	3,6	;RP1=0, select bank0
  3295  01E9  1107               	bcf	7,2	;volatile
  3296  01EA                     l2763:	
  3297                           
  3298                           ;main.c: 323:         clcd_putch((temp/100) + '0', (0xC0 + 8));
  3299  01EA  1087               	bcf	7,1	;volatile
  3300  01EB                     l2765:	
  3301                           
  3302                           ;main.c: 324:         clcd_putch((temp/10)%10 + '0', (0xC0 + 9));
  3303  01EB  1112               	bcf	18,2	;volatile
  3304  01EC                     l2767:	
  3305                           
  3306                           ;main.c: 329:         clcd_print("   ", (0xC0 + 8));
  3307  01EC  3001               	movlw	1
  3308  01ED  07BC               	addwf	set_temp@wait,f
  3309  01EE  1803               	skipnc
  3310  01EF  0ABD               	incf	set_temp@wait+1,f
  3311  01F0  3000               	movlw	0
  3312  01F1  07BD               	addwf	set_temp@wait+1,f
  3313  01F2  3010               	movlw	16
  3314  01F3  063C               	xorwf	set_temp@wait,w
  3315  01F4  043D               	iorwf	set_temp@wait+1,w
  3316  01F5  1D03               	btfss	3,2
  3317  01F6  29F8               	goto	u2511
  3318  01F7  29F9               	goto	u2510
  3319  01F8                     u2511:	
  3320  01F8  2A6D               	goto	l2779
  3321  01F9                     u2510:	
  3322  01F9                     l2769:	
  3323                           
  3324                           ;main.c: 330:     };main.c: 331: 
  3325  01F9  01BC               	clrf	set_temp@wait
  3326  01FA  01BD               	clrf	set_temp@wait+1
  3327  01FB                     l2771:	
  3328                           
  3329                           ;main.c: 332: }
  3330  01FB  0842               	movf	set_temp@blink,w
  3331  01FC  1903               	btfsc	3,2
  3332  01FD  29FF               	goto	u2521
  3333  01FE  2A01               	goto	u2520
  3334  01FF                     u2521:	
  3335  01FF  3001               	movlw	1
  3336  0200  2A02               	goto	u2530
  3337  0201                     u2520:	
  3338  0201  3000               	movlw	0
  3339  0202                     u2530:	
  3340  0202  00AE               	movwf	??_set_temp
  3341  0203  082E               	movf	??_set_temp,w
  3342  0204  00C2               	movwf	set_temp@blink
  3343  0205                     l2773:	
  3344                           
  3345                           ;main.c: 335:     static unsigned char key_count, blink_pos,blink;
  3346  0205  30C8               	movlw	200
  3347  0206  00AE               	movwf	??_set_temp
  3348  0207  082E               	movf	??_set_temp,w
  3349  0208  00AA               	movwf	clcd_putch@addr
  3350  0209  3064               	movlw	100
  3351  020A  00F3               	movwf	___awdiv@divisor
  3352  020B  3000               	movlw	0
  3353  020C  00F4               	movwf	___awdiv@divisor+1
  3354  020D  0841               	movf	set_temp@temp,w
  3355  020E  00AF               	movwf	??_set_temp+1
  3356  020F  01B0               	clrf	??_set_temp+2
  3357  0210  082F               	movf	??_set_temp+1,w
  3358  0211  00F5               	movwf	___awdiv@dividend
  3359  0212  0830               	movf	??_set_temp+2,w
  3360  0213  00F6               	movwf	___awdiv@dividend+1
  3361  0214  120A  158A  2692  120A  118A  	fcall	___awdiv
  3362  0219  0873               	movf	?___awdiv,w
  3363  021A  3E30               	addlw	48
  3364  021B  120A  158A  244E  120A  118A  	fcall	_clcd_putch
  3365  0220                     l2775:	
  3366                           
  3367                           ;main.c: 336:     static int wait;
  3368  0220  30C9               	movlw	201
  3369  0221  1283               	bcf	3,5	;RP0=0, select bank0
  3370  0222  1303               	bcf	3,6	;RP1=0, select bank0
  3371  0223  00AE               	movwf	??_set_temp
  3372  0224  082E               	movf	??_set_temp,w
  3373  0225  00AA               	movwf	clcd_putch@addr
  3374  0226  300A               	movlw	10
  3375  0227  00A4               	movwf	___awmod@divisor
  3376  0228  3000               	movlw	0
  3377  0229  00A5               	movwf	___awmod@divisor+1
  3378  022A  300A               	movlw	10
  3379  022B  00F3               	movwf	___awdiv@divisor
  3380  022C  3000               	movlw	0
  3381  022D  00F4               	movwf	___awdiv@divisor+1
  3382  022E  0841               	movf	set_temp@temp,w
  3383  022F  00AF               	movwf	??_set_temp+1
  3384  0230  01B0               	clrf	??_set_temp+2
  3385  0231  082F               	movf	??_set_temp+1,w
  3386  0232  00F5               	movwf	___awdiv@dividend
  3387  0233  0830               	movf	??_set_temp+2,w
  3388  0234  00F6               	movwf	___awdiv@dividend+1
  3389  0235  120A  158A  2692  120A  118A  	fcall	___awdiv
  3390  023A  0874               	movf	?___awdiv+1,w
  3391  023B  1283               	bcf	3,5	;RP0=0, select bank0
  3392  023C  1303               	bcf	3,6	;RP1=0, select bank0
  3393  023D  00A7               	movwf	___awmod@dividend+1
  3394  023E  0873               	movf	?___awdiv,w
  3395  023F  00A6               	movwf	___awmod@dividend
  3396  0240  120A  158A  25D4  120A  118A  	fcall	___awmod
  3397  0245  1283               	bcf	3,5	;RP0=0, select bank0
  3398  0246  1303               	bcf	3,6	;RP1=0, select bank0
  3399  0247  0824               	movf	?___awmod,w
  3400  0248  3E30               	addlw	48
  3401  0249  120A  158A  244E  120A  118A  	fcall	_clcd_putch
  3402  024E                     l2777:	
  3403                           
  3404                           ;main.c: 337:     if(reset_flag == 0x10)
  3405  024E  30CA               	movlw	202
  3406  024F  1283               	bcf	3,5	;RP0=0, select bank0
  3407  0250  1303               	bcf	3,6	;RP1=0, select bank0
  3408  0251  00AE               	movwf	??_set_temp
  3409  0252  082E               	movf	??_set_temp,w
  3410  0253  00AA               	movwf	clcd_putch@addr
  3411  0254  300A               	movlw	10
  3412  0255  00A4               	movwf	___awmod@divisor
  3413  0256  3000               	movlw	0
  3414  0257  00A5               	movwf	___awmod@divisor+1
  3415  0258  0841               	movf	set_temp@temp,w
  3416  0259  00AF               	movwf	??_set_temp+1
  3417  025A  01B0               	clrf	??_set_temp+2
  3418  025B  082F               	movf	??_set_temp+1,w
  3419  025C  00A6               	movwf	___awmod@dividend
  3420  025D  0830               	movf	??_set_temp+2,w
  3421  025E  00A7               	movwf	___awmod@dividend+1
  3422  025F  120A  158A  25D4  120A  118A  	fcall	___awmod
  3423  0264  1283               	bcf	3,5	;RP0=0, select bank0
  3424  0265  1303               	bcf	3,6	;RP1=0, select bank0
  3425  0266  0824               	movf	?___awmod,w
  3426  0267  3E30               	addlw	48
  3427  0268  120A  158A  244E  120A  118A  	fcall	_clcd_putch
  3428  026D                     l2779:	
  3429                           
  3430                           ;main.c: 339:         key_count = 0;
  3431  026D  1283               	bcf	3,5	;RP0=0, select bank0
  3432  026E  1303               	bcf	3,6	;RP1=0, select bank0
  3433  026F  0842               	movf	set_temp@blink,w
  3434  0270  1903               	btfsc	3,2
  3435  0271  2A73               	goto	u2541
  3436  0272  2A74               	goto	u2540
  3437  0273                     u2541:	
  3438  0273  2A81               	goto	l154
  3439  0274                     u2540:	
  3440  0274                     l2781:	
  3441                           
  3442                           ;main.c: 340:         sec =0;;main.c: 341:         min =0;
  3443  0274  3034               	movlw	low (STR_23| (0+32768))
  3444  0275  00A0               	movwf	clcd_print@str
  3445  0276  3087               	movlw	high (STR_23| (0+32768))
  3446  0277  00A1               	movwf	clcd_print@str+1
  3447  0278  30C8               	movlw	200
  3448  0279  00AE               	movwf	??_set_temp
  3449  027A  082E               	movf	??_set_temp,w
  3450  027B  00A2               	movwf	clcd_print@addr
  3451  027C  120A  158A  24BC  120A  118A  	fcall	_clcd_print
  3452  0281                     l154:	
  3453  0281  0008               	return
  3454  0282                     __end_of_set_temp:	
  3455                           
  3456                           	psect	text5
  3457  0C3D                     __ptext5:	
  3458 ;; *************** function _clear_screen *****************
  3459 ;; Defined at:
  3460 ;;		line 222 in file "main.c"
  3461 ;; Parameters:    Size  Location     Type
  3462 ;;		None
  3463 ;; Auto vars:     Size  Location     Type
  3464 ;;		None
  3465 ;; Return value:  Size  Location     Type
  3466 ;;                  1    wreg      void 
  3467 ;; Registers used:
  3468 ;;		wreg, status,2, status,0, pclath, cstack
  3469 ;; Tracked objects:
  3470 ;;		On entry : 0/0
  3471 ;;		On exit  : 0/0
  3472 ;;		Unchanged: 0/0
  3473 ;; Data sizes:     COMMON   BANK0   BANK1   BANK3   BANK2
  3474 ;;      Params:         0       0       0       0       0
  3475 ;;      Locals:         0       0       0       0       0
  3476 ;;      Temps:          2       0       0       0       0
  3477 ;;      Totals:         2       0       0       0       0
  3478 ;;Total ram usage:        2 bytes
  3479 ;; Hardware stack levels used:    1
  3480 ;; Hardware stack levels required when called:    2
  3481 ;; This function calls:
  3482 ;;		_clcd_write
  3483 ;; This function is called by:
  3484 ;;		_main
  3485 ;;		_door_status
  3486 ;;		_time_display_screen
  3487 ;;		_set_temp
  3488 ;;		_set_time
  3489 ;; This function uses a non-reentrant model
  3490 ;;
  3491                           
  3492                           
  3493                           ;psect for function _clear_screen
  3494  0C3D                     _clear_screen:	
  3495  0C3D                     l1713:	
  3496                           ;incstack = 0
  3497                           ; Regs used in _clear_screen: [wreg+status,2+status,0+pclath+cstack]
  3498                           
  3499                           
  3500                           ;main.c: 224:     clcd_print("  Powering ON  ", (0xC0 + 0));
  3501  0C3D  01F3               	clrf	clcd_write@mode
  3502  0C3E  3001               	movlw	1
  3503  0C3F  120A  158A  24EF  120A  158A  	fcall	_clcd_write
  3504  0C44                     l1715:	
  3505                           
  3506                           ;main.c: 225:     clcd_print(" Microwave Oven ", (0x90 + 0));
  3507  0C44  3004               	movlw	4
  3508  0C45  00F8               	movwf	??_clear_screen+1
  3509  0C46  303D               	movlw	61
  3510  0C47  00F7               	movwf	??_clear_screen
  3511  0C48                     u2777:	
  3512  0C48  0BF7               	decfsz	??_clear_screen,f
  3513  0C49  2C48               	goto	u2777
  3514  0C4A  0BF8               	decfsz	??_clear_screen+1,f
  3515  0C4B  2C48               	goto	u2777
  3516  0C4C  2C4D               	nop2
  3517  0C4D                     l115:	
  3518  0C4D  0008               	return
  3519  0C4E                     __end_of_clear_screen:	
  3520                           
  3521                           	psect	text6
  3522  0C63                     __ptext6:	
  3523 ;; *************** function ___bmul *****************
  3524 ;; Defined at:
  3525 ;;		line 4 in file "C:\Program Files\Microchip\xc8\v2.10\pic\sources\c90\common\Umul8.c"
  3526 ;; Parameters:    Size  Location     Type
  3527 ;;  multiplier      1    wreg     unsigned char 
  3528 ;;  multiplicand    1    3[COMMON] unsigned char 
  3529 ;; Auto vars:     Size  Location     Type
  3530 ;;  multiplier      1    6[COMMON] unsigned char 
  3531 ;;  product         1    5[COMMON] unsigned char 
  3532 ;; Return value:  Size  Location     Type
  3533 ;;                  1    wreg      unsigned char 
  3534 ;; Registers used:
  3535 ;;		wreg, status,2, status,0
  3536 ;; Tracked objects:
  3537 ;;		On entry : 0/0
  3538 ;;		On exit  : 0/0
  3539 ;;		Unchanged: 0/0
  3540 ;; Data sizes:     COMMON   BANK0   BANK1   BANK3   BANK2
  3541 ;;      Params:         1       0       0       0       0
  3542 ;;      Locals:         2       0       0       0       0
  3543 ;;      Temps:          1       0       0       0       0
  3544 ;;      Totals:         4       0       0       0       0
  3545 ;;Total ram usage:        4 bytes
  3546 ;; Hardware stack levels used:    1
  3547 ;; Hardware stack levels required when called:    1
  3548 ;; This function calls:
  3549 ;;		Nothing
  3550 ;; This function is called by:
  3551 ;;		_set_temp
  3552 ;;		_set_time
  3553 ;; This function uses a non-reentrant model
  3554 ;;
  3555                           
  3556                           
  3557                           ;psect for function ___bmul
  3558  0C63                     ___bmul:	
  3559                           
  3560                           ;incstack = 0
  3561                           ; Regs used in ___bmul: [wreg+status,2+status,0]
  3562                           ;___bmul@multiplier stored from wreg
  3563  0C63  00F6               	movwf	___bmul@multiplier
  3564  0C64                     l1895:	
  3565  0C64  01F5               	clrf	___bmul@product
  3566  0C65                     l1897:	
  3567  0C65  1C76               	btfss	___bmul@multiplier,0
  3568  0C66  2C68               	goto	u1271
  3569  0C67  2C69               	goto	u1270
  3570  0C68                     u1271:	
  3571  0C68  2C6D               	goto	l1901
  3572  0C69                     u1270:	
  3573  0C69                     l1899:	
  3574  0C69  0873               	movf	___bmul@multiplicand,w
  3575  0C6A  00F4               	movwf	??___bmul
  3576  0C6B  0874               	movf	??___bmul,w
  3577  0C6C  07F5               	addwf	___bmul@product,f
  3578  0C6D                     l1901:	
  3579  0C6D  1003               	clrc
  3580  0C6E  0DF3               	rlf	___bmul@multiplicand,f
  3581  0C6F                     l1903:	
  3582  0C6F  1003               	clrc
  3583  0C70  0CF6               	rrf	___bmul@multiplier,f
  3584  0C71  0876               	movf	___bmul@multiplier,w
  3585  0C72  1D03               	btfss	3,2
  3586  0C73  2C75               	goto	u1281
  3587  0C74  2C76               	goto	u1280
  3588  0C75                     u1281:	
  3589  0C75  2C65               	goto	l1897
  3590  0C76                     u1280:	
  3591  0C76                     l1905:	
  3592  0C76  0875               	movf	___bmul@product,w
  3593  0C77                     l423:	
  3594  0C77  0008               	return
  3595  0C78                     __end_of___bmul:	
  3596                           
  3597                           	psect	text7
  3598  0DD4                     __ptext7:	
  3599 ;; *************** function ___awmod *****************
  3600 ;; Defined at:
  3601 ;;		line 5 in file "C:\Program Files\Microchip\xc8\v2.10\pic\sources\c90\common\awmod.c"
  3602 ;; Parameters:    Size  Location     Type
  3603 ;;  divisor         2    4[BANK0 ] int 
  3604 ;;  dividend        2    6[BANK0 ] int 
  3605 ;; Auto vars:     Size  Location     Type
  3606 ;;  sign            1    9[BANK0 ] unsigned char 
  3607 ;;  counter         1    8[BANK0 ] unsigned char 
  3608 ;; Return value:  Size  Location     Type
  3609 ;;                  2    4[BANK0 ] int 
  3610 ;; Registers used:
  3611 ;;		wreg, status,2, status,0
  3612 ;; Tracked objects:
  3613 ;;		On entry : 0/0
  3614 ;;		On exit  : 0/0
  3615 ;;		Unchanged: 0/0
  3616 ;; Data sizes:     COMMON   BANK0   BANK1   BANK3   BANK2
  3617 ;;      Params:         0       4       0       0       0
  3618 ;;      Locals:         0       2       0       0       0
  3619 ;;      Temps:          1       0       0       0       0
  3620 ;;      Totals:         1       6       0       0       0
  3621 ;;Total ram usage:        7 bytes
  3622 ;; Hardware stack levels used:    1
  3623 ;; Hardware stack levels required when called:    1
  3624 ;; This function calls:
  3625 ;;		Nothing
  3626 ;; This function is called by:
  3627 ;;		_time_display_screen
  3628 ;;		_set_temp
  3629 ;;		_set_time
  3630 ;; This function uses a non-reentrant model
  3631 ;;
  3632                           
  3633                           
  3634                           ;psect for function ___awmod
  3635  0DD4                     ___awmod:	
  3636  0DD4                     l2515:	
  3637                           ;incstack = 0
  3638                           ; Regs used in ___awmod: [wreg+status,2+status,0]
  3639                           
  3640  0DD4  1283               	bcf	3,5	;RP0=0, select bank0
  3641  0DD5  1303               	bcf	3,6	;RP1=0, select bank0
  3642  0DD6  01A9               	clrf	___awmod@sign
  3643  0DD7                     l2517:	
  3644  0DD7  1FA7               	btfss	___awmod@dividend+1,7
  3645  0DD8  2DDA               	goto	u2121
  3646  0DD9  2DDB               	goto	u2120
  3647  0DDA                     u2121:	
  3648  0DDA  2DE2               	goto	l2523
  3649  0DDB                     u2120:	
  3650  0DDB                     l2519:	
  3651  0DDB  09A6               	comf	___awmod@dividend,f
  3652  0DDC  09A7               	comf	___awmod@dividend+1,f
  3653  0DDD  0AA6               	incf	___awmod@dividend,f
  3654  0DDE  1903               	skipnz
  3655  0DDF  0AA7               	incf	___awmod@dividend+1,f
  3656  0DE0                     l2521:	
  3657  0DE0  01A9               	clrf	___awmod@sign
  3658  0DE1  0AA9               	incf	___awmod@sign,f
  3659  0DE2                     l2523:	
  3660  0DE2  1FA5               	btfss	___awmod@divisor+1,7
  3661  0DE3  2DE5               	goto	u2131
  3662  0DE4  2DE6               	goto	u2130
  3663  0DE5                     u2131:	
  3664  0DE5  2DEB               	goto	l2527
  3665  0DE6                     u2130:	
  3666  0DE6                     l2525:	
  3667  0DE6  09A4               	comf	___awmod@divisor,f
  3668  0DE7  09A5               	comf	___awmod@divisor+1,f
  3669  0DE8  0AA4               	incf	___awmod@divisor,f
  3670  0DE9  1903               	skipnz
  3671  0DEA  0AA5               	incf	___awmod@divisor+1,f
  3672  0DEB                     l2527:	
  3673  0DEB  0824               	movf	___awmod@divisor,w
  3674  0DEC  0425               	iorwf	___awmod@divisor+1,w
  3675  0DED  1903               	btfsc	3,2
  3676  0DEE  2DF0               	goto	u2141
  3677  0DEF  2DF1               	goto	u2140
  3678  0DF0                     u2141:	
  3679  0DF0  2E20               	goto	l2545
  3680  0DF1                     u2140:	
  3681  0DF1                     l2529:	
  3682  0DF1  01A8               	clrf	___awmod@counter
  3683  0DF2  0AA8               	incf	___awmod@counter,f
  3684  0DF3  2DFF               	goto	l2535
  3685  0DF4                     l2531:	
  3686  0DF4  3001               	movlw	1
  3687  0DF5                     u2155:	
  3688  0DF5  1003               	clrc
  3689  0DF6  0DA4               	rlf	___awmod@divisor,f
  3690  0DF7  0DA5               	rlf	___awmod@divisor+1,f
  3691  0DF8  3EFF               	addlw	-1
  3692  0DF9  1D03               	skipz
  3693  0DFA  2DF5               	goto	u2155
  3694  0DFB                     l2533:	
  3695  0DFB  3001               	movlw	1
  3696  0DFC  00F8               	movwf	??___awmod
  3697  0DFD  0878               	movf	??___awmod,w
  3698  0DFE  07A8               	addwf	___awmod@counter,f
  3699  0DFF                     l2535:	
  3700  0DFF  1FA5               	btfss	___awmod@divisor+1,7
  3701  0E00  2E02               	goto	u2161
  3702  0E01  2E03               	goto	u2160
  3703  0E02                     u2161:	
  3704  0E02  2DF4               	goto	l2531
  3705  0E03                     u2160:	
  3706  0E03                     l2537:	
  3707  0E03  0825               	movf	___awmod@divisor+1,w
  3708  0E04  0227               	subwf	___awmod@dividend+1,w
  3709  0E05  1D03               	skipz
  3710  0E06  2E09               	goto	u2175
  3711  0E07  0824               	movf	___awmod@divisor,w
  3712  0E08  0226               	subwf	___awmod@dividend,w
  3713  0E09                     u2175:	
  3714  0E09  1C03               	skipc
  3715  0E0A  2E0C               	goto	u2171
  3716  0E0B  2E0D               	goto	u2170
  3717  0E0C                     u2171:	
  3718  0E0C  2E13               	goto	l2541
  3719  0E0D                     u2170:	
  3720  0E0D                     l2539:	
  3721  0E0D  0824               	movf	___awmod@divisor,w
  3722  0E0E  02A6               	subwf	___awmod@dividend,f
  3723  0E0F  0825               	movf	___awmod@divisor+1,w
  3724  0E10  1C03               	skipc
  3725  0E11  03A7               	decf	___awmod@dividend+1,f
  3726  0E12  02A7               	subwf	___awmod@dividend+1,f
  3727  0E13                     l2541:	
  3728  0E13  3001               	movlw	1
  3729  0E14                     u2185:	
  3730  0E14  1003               	clrc
  3731  0E15  0CA5               	rrf	___awmod@divisor+1,f
  3732  0E16  0CA4               	rrf	___awmod@divisor,f
  3733  0E17  3EFF               	addlw	-1
  3734  0E18  1D03               	skipz
  3735  0E19  2E14               	goto	u2185
  3736  0E1A                     l2543:	
  3737  0E1A  3001               	movlw	1
  3738  0E1B  02A8               	subwf	___awmod@counter,f
  3739  0E1C  1D03               	btfss	3,2
  3740  0E1D  2E1F               	goto	u2191
  3741  0E1E  2E20               	goto	u2190
  3742  0E1F                     u2191:	
  3743  0E1F  2E03               	goto	l2537
  3744  0E20                     u2190:	
  3745  0E20                     l2545:	
  3746  0E20  0829               	movf	___awmod@sign,w
  3747  0E21  1903               	btfsc	3,2
  3748  0E22  2E24               	goto	u2201
  3749  0E23  2E25               	goto	u2200
  3750  0E24                     u2201:	
  3751  0E24  2E2A               	goto	l2549
  3752  0E25                     u2200:	
  3753  0E25                     l2547:	
  3754  0E25  09A6               	comf	___awmod@dividend,f
  3755  0E26  09A7               	comf	___awmod@dividend+1,f
  3756  0E27  0AA6               	incf	___awmod@dividend,f
  3757  0E28  1903               	skipnz
  3758  0E29  0AA7               	incf	___awmod@dividend+1,f
  3759  0E2A                     l2549:	
  3760  0E2A  0827               	movf	___awmod@dividend+1,w
  3761  0E2B  00A5               	movwf	?___awmod+1
  3762  0E2C  0826               	movf	___awmod@dividend,w
  3763  0E2D  00A4               	movwf	?___awmod
  3764  0E2E                     l563:	
  3765  0E2E  0008               	return
  3766  0E2F                     __end_of___awmod:	
  3767                           
  3768                           	psect	text8
  3769  0E92                     __ptext8:	
  3770 ;; *************** function ___awdiv *****************
  3771 ;; Defined at:
  3772 ;;		line 5 in file "C:\Program Files\Microchip\xc8\v2.10\pic\sources\c90\common\awdiv.c"
  3773 ;; Parameters:    Size  Location     Type
  3774 ;;  divisor         2    3[COMMON] int 
  3775 ;;  dividend        2    5[COMMON] int 
  3776 ;; Auto vars:     Size  Location     Type
  3777 ;;  quotient        2    2[BANK0 ] int 
  3778 ;;  sign            1    1[BANK0 ] unsigned char 
  3779 ;;  counter         1    0[BANK0 ] unsigned char 
  3780 ;; Return value:  Size  Location     Type
  3781 ;;                  2    3[COMMON] int 
  3782 ;; Registers used:
  3783 ;;		wreg, status,2, status,0
  3784 ;; Tracked objects:
  3785 ;;		On entry : 0/0
  3786 ;;		On exit  : 0/0
  3787 ;;		Unchanged: 0/0
  3788 ;; Data sizes:     COMMON   BANK0   BANK1   BANK3   BANK2
  3789 ;;      Params:         4       0       0       0       0
  3790 ;;      Locals:         0       4       0       0       0
  3791 ;;      Temps:          1       0       0       0       0
  3792 ;;      Totals:         5       4       0       0       0
  3793 ;;Total ram usage:        9 bytes
  3794 ;; Hardware stack levels used:    1
  3795 ;; Hardware stack levels required when called:    1
  3796 ;; This function calls:
  3797 ;;		Nothing
  3798 ;; This function is called by:
  3799 ;;		_time_display_screen
  3800 ;;		_set_temp
  3801 ;;		_set_time
  3802 ;; This function uses a non-reentrant model
  3803 ;;
  3804                           
  3805                           
  3806                           ;psect for function ___awdiv
  3807  0E92                     ___awdiv:	
  3808  0E92                     l1909:	
  3809                           ;incstack = 0
  3810                           ; Regs used in ___awdiv: [wreg+status,2+status,0]
  3811                           
  3812  0E92  1283               	bcf	3,5	;RP0=0, select bank0
  3813  0E93  1303               	bcf	3,6	;RP1=0, select bank0
  3814  0E94  01A1               	clrf	___awdiv@sign
  3815  0E95                     l1911:	
  3816  0E95  1FF4               	btfss	___awdiv@divisor+1,7
  3817  0E96  2E98               	goto	u1291
  3818  0E97  2E99               	goto	u1290
  3819  0E98                     u1291:	
  3820  0E98  2EA0               	goto	l1917
  3821  0E99                     u1290:	
  3822  0E99                     l1913:	
  3823  0E99  09F3               	comf	___awdiv@divisor,f
  3824  0E9A  09F4               	comf	___awdiv@divisor+1,f
  3825  0E9B  0AF3               	incf	___awdiv@divisor,f
  3826  0E9C  1903               	skipnz
  3827  0E9D  0AF4               	incf	___awdiv@divisor+1,f
  3828  0E9E                     l1915:	
  3829  0E9E  01A1               	clrf	___awdiv@sign
  3830  0E9F  0AA1               	incf	___awdiv@sign,f
  3831  0EA0                     l1917:	
  3832  0EA0  1FF6               	btfss	___awdiv@dividend+1,7
  3833  0EA1  2EA3               	goto	u1301
  3834  0EA2  2EA4               	goto	u1300
  3835  0EA3                     u1301:	
  3836  0EA3  2EAD               	goto	l1923
  3837  0EA4                     u1300:	
  3838  0EA4                     l1919:	
  3839  0EA4  09F5               	comf	___awdiv@dividend,f
  3840  0EA5  09F6               	comf	___awdiv@dividend+1,f
  3841  0EA6  0AF5               	incf	___awdiv@dividend,f
  3842  0EA7  1903               	skipnz
  3843  0EA8  0AF6               	incf	___awdiv@dividend+1,f
  3844  0EA9                     l1921:	
  3845  0EA9  3001               	movlw	1
  3846  0EAA  00F7               	movwf	??___awdiv
  3847  0EAB  0877               	movf	??___awdiv,w
  3848  0EAC  06A1               	xorwf	___awdiv@sign,f
  3849  0EAD                     l1923:	
  3850  0EAD  01A2               	clrf	___awdiv@quotient
  3851  0EAE  01A3               	clrf	___awdiv@quotient+1
  3852  0EAF                     l1925:	
  3853  0EAF  0873               	movf	___awdiv@divisor,w
  3854  0EB0  0474               	iorwf	___awdiv@divisor+1,w
  3855  0EB1  1903               	btfsc	3,2
  3856  0EB2  2EB4               	goto	u1311
  3857  0EB3  2EB5               	goto	u1310
  3858  0EB4                     u1311:	
  3859  0EB4  2EEC               	goto	l1945
  3860  0EB5                     u1310:	
  3861  0EB5                     l1927:	
  3862  0EB5  01A0               	clrf	___awdiv@counter
  3863  0EB6  0AA0               	incf	___awdiv@counter,f
  3864  0EB7  2EC3               	goto	l1933
  3865  0EB8                     l1929:	
  3866  0EB8  3001               	movlw	1
  3867  0EB9                     u1325:	
  3868  0EB9  1003               	clrc
  3869  0EBA  0DF3               	rlf	___awdiv@divisor,f
  3870  0EBB  0DF4               	rlf	___awdiv@divisor+1,f
  3871  0EBC  3EFF               	addlw	-1
  3872  0EBD  1D03               	skipz
  3873  0EBE  2EB9               	goto	u1325
  3874  0EBF                     l1931:	
  3875  0EBF  3001               	movlw	1
  3876  0EC0  00F7               	movwf	??___awdiv
  3877  0EC1  0877               	movf	??___awdiv,w
  3878  0EC2  07A0               	addwf	___awdiv@counter,f
  3879  0EC3                     l1933:	
  3880  0EC3  1FF4               	btfss	___awdiv@divisor+1,7
  3881  0EC4  2EC6               	goto	u1331
  3882  0EC5  2EC7               	goto	u1330
  3883  0EC6                     u1331:	
  3884  0EC6  2EB8               	goto	l1929
  3885  0EC7                     u1330:	
  3886  0EC7                     l1935:	
  3887  0EC7  3001               	movlw	1
  3888  0EC8                     u1345:	
  3889  0EC8  1003               	clrc
  3890  0EC9  0DA2               	rlf	___awdiv@quotient,f
  3891  0ECA  0DA3               	rlf	___awdiv@quotient+1,f
  3892  0ECB  3EFF               	addlw	-1
  3893  0ECC  1D03               	skipz
  3894  0ECD  2EC8               	goto	u1345
  3895  0ECE  0874               	movf	___awdiv@divisor+1,w
  3896  0ECF  0276               	subwf	___awdiv@dividend+1,w
  3897  0ED0  1D03               	skipz
  3898  0ED1  2ED4               	goto	u1355
  3899  0ED2  0873               	movf	___awdiv@divisor,w
  3900  0ED3  0275               	subwf	___awdiv@dividend,w
  3901  0ED4                     u1355:	
  3902  0ED4  1C03               	skipc
  3903  0ED5  2ED7               	goto	u1351
  3904  0ED6  2ED8               	goto	u1350
  3905  0ED7                     u1351:	
  3906  0ED7  2EDF               	goto	l1941
  3907  0ED8                     u1350:	
  3908  0ED8                     l1937:	
  3909  0ED8  0873               	movf	___awdiv@divisor,w
  3910  0ED9  02F5               	subwf	___awdiv@dividend,f
  3911  0EDA  0874               	movf	___awdiv@divisor+1,w
  3912  0EDB  1C03               	skipc
  3913  0EDC  03F6               	decf	___awdiv@dividend+1,f
  3914  0EDD  02F6               	subwf	___awdiv@dividend+1,f
  3915  0EDE                     l1939:	
  3916  0EDE  1422               	bsf	___awdiv@quotient,0
  3917  0EDF                     l1941:	
  3918  0EDF  3001               	movlw	1
  3919  0EE0                     u1365:	
  3920  0EE0  1003               	clrc
  3921  0EE1  0CF4               	rrf	___awdiv@divisor+1,f
  3922  0EE2  0CF3               	rrf	___awdiv@divisor,f
  3923  0EE3  3EFF               	addlw	-1
  3924  0EE4  1D03               	skipz
  3925  0EE5  2EE0               	goto	u1365
  3926  0EE6                     l1943:	
  3927  0EE6  3001               	movlw	1
  3928  0EE7  02A0               	subwf	___awdiv@counter,f
  3929  0EE8  1D03               	btfss	3,2
  3930  0EE9  2EEB               	goto	u1371
  3931  0EEA  2EEC               	goto	u1370
  3932  0EEB                     u1371:	
  3933  0EEB  2EC7               	goto	l1935
  3934  0EEC                     u1370:	
  3935  0EEC                     l1945:	
  3936  0EEC  0821               	movf	___awdiv@sign,w
  3937  0EED  1903               	btfsc	3,2
  3938  0EEE  2EF0               	goto	u1381
  3939  0EEF  2EF1               	goto	u1380
  3940  0EF0                     u1381:	
  3941  0EF0  2EF6               	goto	l1949
  3942  0EF1                     u1380:	
  3943  0EF1                     l1947:	
  3944  0EF1  09A2               	comf	___awdiv@quotient,f
  3945  0EF2  09A3               	comf	___awdiv@quotient+1,f
  3946  0EF3  0AA2               	incf	___awdiv@quotient,f
  3947  0EF4  1903               	skipnz
  3948  0EF5  0AA3               	incf	___awdiv@quotient+1,f
  3949  0EF6                     l1949:	
  3950  0EF6  0823               	movf	___awdiv@quotient+1,w
  3951  0EF7  00F4               	movwf	?___awdiv+1
  3952  0EF8  0822               	movf	___awdiv@quotient,w
  3953  0EF9  00F3               	movwf	?___awdiv
  3954  0EFA                     l550:	
  3955  0EFA  0008               	return
  3956  0EFB                     __end_of___awdiv:	
  3957                           
  3958                           	psect	text9
  3959  0C97                     __ptext9:	
  3960 ;; *************** function _read_matrix_keypad *****************
  3961 ;; Defined at:
  3962 ;;		line 114 in file "matrix_keypad.c"
  3963 ;; Parameters:    Size  Location     Type
  3964 ;;  mode            1    wreg     unsigned char 
  3965 ;; Auto vars:     Size  Location     Type
  3966 ;;  mode            1    6[COMMON] unsigned char 
  3967 ;;  key             1    7[COMMON] unsigned char 
  3968 ;; Return value:  Size  Location     Type
  3969 ;;                  1    wreg      unsigned char 
  3970 ;; Registers used:
  3971 ;;		wreg, status,2, status,0, btemp+1, pclath, cstack
  3972 ;; Tracked objects:
  3973 ;;		On entry : 0/0
  3974 ;;		On exit  : 0/0
  3975 ;;		Unchanged: 0/0
  3976 ;; Data sizes:     COMMON   BANK0   BANK1   BANK3   BANK2
  3977 ;;      Params:         0       0       0       0       0
  3978 ;;      Locals:         2       0       0       0       0
  3979 ;;      Temps:          1       0       0       0       0
  3980 ;;      Totals:         3       0       0       0       0
  3981 ;;Total ram usage:        3 bytes
  3982 ;; Hardware stack levels used:    1
  3983 ;; Hardware stack levels required when called:    2
  3984 ;; This function calls:
  3985 ;;		_scan_keypad
  3986 ;; This function is called by:
  3987 ;;		_main
  3988 ;; This function uses a non-reentrant model
  3989 ;;
  3990                           
  3991                           
  3992                           ;psect for function _read_matrix_keypad
  3993  0C97                     _read_matrix_keypad:	
  3994                           
  3995                           ;incstack = 0
  3996                           ; Regs used in _read_matrix_keypad: [wreg+status,2+status,0+btemp+1+pclath+cstack]
  3997                           ;read_matrix_keypad@mode stored from wreg
  3998  0C97  00F6               	movwf	read_matrix_keypad@mode
  3999  0C98                     l2007:	
  4000                           
  4001                           ;matrix_keypad.c: 114: unsigned char read_matrix_keypad(unsigned char mode);matrix_keypa
      +                          d.c: 115: {;matrix_keypad.c: 116:     static unsigned char once = 1;;matrix_keypad.c: 11
      +                          7:     unsigned char key;;matrix_keypad.c: 119:     key = scan_keypad();
  4002  0C98  120A  118A  2738  120A  158A  	fcall	_scan_keypad
  4003  0C9D  00F5               	movwf	??_read_matrix_keypad
  4004  0C9E  0875               	movf	??_read_matrix_keypad,w
  4005  0C9F  00F7               	movwf	read_matrix_keypad@key
  4006  0CA0                     l2009:	
  4007                           
  4008                           ;matrix_keypad.c: 121:     if (mode == 0)
  4009  0CA0  0876               	movf	read_matrix_keypad@mode,w
  4010  0CA1  1D03               	btfss	3,2
  4011  0CA2  2CA4               	goto	u1481
  4012  0CA3  2CA5               	goto	u1480
  4013  0CA4                     u1481:	
  4014  0CA4  2CA7               	goto	l2017
  4015  0CA5                     u1480:	
  4016  0CA5                     l2011:	
  4017                           
  4018                           ;matrix_keypad.c: 122:     {;matrix_keypad.c: 123:         return key;
  4019  0CA5  0877               	movf	read_matrix_keypad@key,w
  4020  0CA6  2CBB               	goto	l276
  4021  0CA7                     l2017:	
  4022                           
  4023                           ;matrix_keypad.c: 126:     {;matrix_keypad.c: 127:         if ((key != 0xFF) && once)
  4024  0CA7  0A77               	incf	read_matrix_keypad@key,w
  4025  0CA8  1903               	btfsc	3,2
  4026  0CA9  2CAB               	goto	u1491
  4027  0CAA  2CAC               	goto	u1490
  4028  0CAB                     u1491:	
  4029  0CAB  2CB3               	goto	l2029
  4030  0CAC                     u1490:	
  4031  0CAC                     l2019:	
  4032  0CAC  087A               	movf	read_matrix_keypad@once,w
  4033  0CAD  1903               	btfsc	3,2
  4034  0CAE  2CB0               	goto	u1501
  4035  0CAF  2CB1               	goto	u1500
  4036  0CB0                     u1501:	
  4037  0CB0  2CB3               	goto	l2029
  4038  0CB1                     u1500:	
  4039  0CB1                     l2021:	
  4040                           
  4041                           ;matrix_keypad.c: 128:         {;matrix_keypad.c: 129:             once = 0;
  4042  0CB1  01FA               	clrf	read_matrix_keypad@once
  4043  0CB2  2CA5               	goto	l2011
  4044  0CB3                     l2029:	
  4045  0CB3  0A77               	incf	read_matrix_keypad@key,w
  4046  0CB4  1D03               	btfss	3,2
  4047  0CB5  2CB7               	goto	u1511
  4048  0CB6  2CB8               	goto	u1510
  4049  0CB7                     u1511:	
  4050  0CB7  2CBA               	goto	l2033
  4051  0CB8                     u1510:	
  4052  0CB8                     l2031:	
  4053                           
  4054                           ;matrix_keypad.c: 134:         {;matrix_keypad.c: 135:             once = 1;
  4055  0CB8  01FA               	clrf	read_matrix_keypad@once
  4056  0CB9  0AFA               	incf	read_matrix_keypad@once,f
  4057  0CBA                     l2033:	
  4058                           
  4059                           ;matrix_keypad.c: 139:     return 0xFF;
  4060  0CBA  30FF               	movlw	255
  4061  0CBB                     l276:	
  4062  0CBB  0008               	return
  4063  0CBC                     __end_of_read_matrix_keypad:	
  4064                           
  4065                           	psect	text10
  4066  0738                     __ptext10:	
  4067 ;; *************** function _scan_keypad *****************
  4068 ;; Defined at:
  4069 ;;		line 24 in file "matrix_keypad.c"
  4070 ;; Parameters:    Size  Location     Type
  4071 ;;		None
  4072 ;; Auto vars:     Size  Location     Type
  4073 ;;  i               2    3[COMMON] int 
  4074 ;; Return value:  Size  Location     Type
  4075 ;;                  1    wreg      unsigned char 
  4076 ;; Registers used:
  4077 ;;		wreg, status,2, status,0, btemp+1
  4078 ;; Tracked objects:
  4079 ;;		On entry : 0/0
  4080 ;;		On exit  : 0/0
  4081 ;;		Unchanged: 0/0
  4082 ;; Data sizes:     COMMON   BANK0   BANK1   BANK3   BANK2
  4083 ;;      Params:         0       0       0       0       0
  4084 ;;      Locals:         2       0       0       0       0
  4085 ;;      Temps:          0       0       0       0       0
  4086 ;;      Totals:         2       0       0       0       0
  4087 ;;Total ram usage:        2 bytes
  4088 ;; Hardware stack levels used:    1
  4089 ;; Hardware stack levels required when called:    1
  4090 ;; This function calls:
  4091 ;;		Nothing
  4092 ;; This function is called by:
  4093 ;;		_read_matrix_keypad
  4094 ;; This function uses a non-reentrant model
  4095 ;;
  4096                           
  4097                           
  4098                           ;psect for function _scan_keypad
  4099  0738                     _scan_keypad:	
  4100  0738                     l1791:	
  4101                           ;incstack = 0
  4102                           ; Regs used in _scan_keypad: [wreg+status,2+status,0+btemp+1]
  4103                           
  4104                           
  4105                           ;matrix_keypad.c: 26:     int i;;matrix_keypad.c: 28:     RD3 = 0;
  4106  0738  1283               	bcf	3,5	;RP0=0, select bank0
  4107  0739  1303               	bcf	3,6	;RP1=0, select bank0
  4108  073A  1188               	bcf	8,3	;volatile
  4109                           
  4110                           ;matrix_keypad.c: 29:     RD2 = 1;
  4111  073B  1508               	bsf	8,2	;volatile
  4112                           
  4113                           ;matrix_keypad.c: 30:     RD1 = 1;
  4114  073C  1488               	bsf	8,1	;volatile
  4115                           
  4116                           ;matrix_keypad.c: 31:     RD0 = 1;
  4117  073D  1408               	bsf	8,0	;volatile
  4118  073E                     l1793:	
  4119                           
  4120                           ;matrix_keypad.c: 33:     for (i = 100; i--; );
  4121  073E  3064               	movlw	100
  4122  073F  00F3               	movwf	scan_keypad@i
  4123  0740  3000               	movlw	0
  4124  0741  00F4               	movwf	scan_keypad@i+1
  4125  0742                     l1795:	
  4126  0742  30FF               	movlw	255
  4127  0743  07F3               	addwf	scan_keypad@i,f
  4128  0744  1803               	skipnc
  4129  0745  0AF4               	incf	scan_keypad@i+1,f
  4130  0746  30FF               	movlw	255
  4131  0747  07F4               	addwf	scan_keypad@i+1,f
  4132  0748  0A73               	incf	scan_keypad@i,w
  4133  0749  1D03               	skipz
  4134  074A  2F4F               	goto	u1111
  4135  074B  0A74               	incf	scan_keypad@i+1,w
  4136  074C  1D03               	btfss	3,2
  4137  074D  2F4F               	goto	u1111
  4138  074E  2F50               	goto	u1110
  4139  074F                     u1111:	
  4140  074F  2F42               	goto	l1795
  4141  0750                     u1110:	
  4142  0750                     l243:	
  4143                           
  4144                           ;matrix_keypad.c: 35:     if (RB0 == 0)
  4145  0750  1283               	bcf	3,5	;RP0=0, select bank0
  4146  0751  1303               	bcf	3,6	;RP1=0, select bank0
  4147  0752  1806               	btfsc	6,0	;volatile
  4148  0753  2F55               	goto	u1121
  4149  0754  2F56               	goto	u1120
  4150  0755                     u1121:	
  4151  0755  2F58               	goto	l244
  4152  0756                     u1120:	
  4153  0756                     l1797:	
  4154                           
  4155                           ;matrix_keypad.c: 36:     {;matrix_keypad.c: 37:         return 1;
  4156  0756  3001               	movlw	1
  4157  0757  2FF2               	goto	l245
  4158  0758                     l244:	
  4159                           ;matrix_keypad.c: 39:     else if (RB1 == 0)
  4160                           
  4161  0758  1886               	btfsc	6,1	;volatile
  4162  0759  2F5B               	goto	u1131
  4163  075A  2F5C               	goto	u1130
  4164  075B                     u1131:	
  4165  075B  2F5E               	goto	l247
  4166  075C                     u1130:	
  4167  075C                     l1803:	
  4168                           
  4169                           ;matrix_keypad.c: 40:     {;matrix_keypad.c: 41:         return 2;
  4170  075C  3002               	movlw	2
  4171  075D  2FF2               	goto	l245
  4172  075E                     l247:	
  4173                           ;matrix_keypad.c: 43:     else if (RB2 == 0)
  4174                           
  4175  075E  1906               	btfsc	6,2	;volatile
  4176  075F  2F61               	goto	u1141
  4177  0760  2F62               	goto	u1140
  4178  0761                     u1141:	
  4179  0761  2F64               	goto	l246
  4180  0762                     u1140:	
  4181  0762                     l1809:	
  4182                           
  4183                           ;matrix_keypad.c: 44:     {;matrix_keypad.c: 45:         return 3;
  4184  0762  3003               	movlw	3
  4185  0763  2FF2               	goto	l245
  4186  0764                     l246:	
  4187                           
  4188                           ;matrix_keypad.c: 48:     RD3 = 1;
  4189  0764  1588               	bsf	8,3	;volatile
  4190                           
  4191                           ;matrix_keypad.c: 49:     RD2 = 0;
  4192  0765  1108               	bcf	8,2	;volatile
  4193                           
  4194                           ;matrix_keypad.c: 50:     RD1 = 1;
  4195  0766  1488               	bsf	8,1	;volatile
  4196                           
  4197                           ;matrix_keypad.c: 51:     RD0 = 1;
  4198  0767  1408               	bsf	8,0	;volatile
  4199  0768                     l1813:	
  4200                           
  4201                           ;matrix_keypad.c: 53:    for (i = 100; i > 0; i--)
  4202  0768  3064               	movlw	100
  4203  0769  00F3               	movwf	scan_keypad@i
  4204  076A  3000               	movlw	0
  4205  076B  00F4               	movwf	scan_keypad@i+1
  4206  076C                     l1819:	
  4207                           
  4208                           ;matrix_keypad.c: 54:    {;matrix_keypad.c: 56:    }
  4209  076C  30FF               	movlw	255
  4210  076D  07F3               	addwf	scan_keypad@i,f
  4211  076E  1803               	skipnc
  4212  076F  0AF4               	incf	scan_keypad@i+1,f
  4213  0770  30FF               	movlw	255
  4214  0771  07F4               	addwf	scan_keypad@i+1,f
  4215  0772                     l1821:	
  4216  0772  0874               	movf	scan_keypad@i+1,w
  4217  0773  3A80               	xorlw	128
  4218  0774  00FF               	movwf	btemp+1
  4219  0775  3080               	movlw	128
  4220  0776  027F               	subwf	btemp+1,w
  4221  0777  1D03               	skipz
  4222  0778  2F7B               	goto	u1155
  4223  0779  3001               	movlw	1
  4224  077A  0273               	subwf	scan_keypad@i,w
  4225  077B                     u1155:	
  4226  077B  1803               	skipnc
  4227  077C  2F7E               	goto	u1151
  4228  077D  2F7F               	goto	u1150
  4229  077E                     u1151:	
  4230  077E  2F6C               	goto	l1819
  4231  077F                     u1150:	
  4232  077F                     l251:	
  4233                           
  4234                           ;matrix_keypad.c: 58:     if (RB0 == 0)
  4235  077F  1283               	bcf	3,5	;RP0=0, select bank0
  4236  0780  1303               	bcf	3,6	;RP1=0, select bank0
  4237  0781  1806               	btfsc	6,0	;volatile
  4238  0782  2F84               	goto	u1161
  4239  0783  2F85               	goto	u1160
  4240  0784                     u1161:	
  4241  0784  2F87               	goto	l252
  4242  0785                     u1160:	
  4243  0785                     l1823:	
  4244                           
  4245                           ;matrix_keypad.c: 59:     {;matrix_keypad.c: 60:         return 4;
  4246  0785  3004               	movlw	4
  4247  0786  2FF2               	goto	l245
  4248  0787                     l252:	
  4249                           ;matrix_keypad.c: 62:     else if (RB1 == 0)
  4250                           
  4251  0787  1886               	btfsc	6,1	;volatile
  4252  0788  2F8A               	goto	u1171
  4253  0789  2F8B               	goto	u1170
  4254  078A                     u1171:	
  4255  078A  2F8D               	goto	l254
  4256  078B                     u1170:	
  4257  078B                     l1829:	
  4258                           
  4259                           ;matrix_keypad.c: 63:     {;matrix_keypad.c: 64:         return 5;
  4260  078B  3005               	movlw	5
  4261  078C  2FF2               	goto	l245
  4262  078D                     l254:	
  4263                           ;matrix_keypad.c: 66:     else if (RB2 == 0)
  4264                           
  4265  078D  1906               	btfsc	6,2	;volatile
  4266  078E  2F90               	goto	u1181
  4267  078F  2F91               	goto	u1180
  4268  0790                     u1181:	
  4269  0790  2F93               	goto	l253
  4270  0791                     u1180:	
  4271  0791                     l1835:	
  4272                           
  4273                           ;matrix_keypad.c: 67:     {;matrix_keypad.c: 68:         return 6;
  4274  0791  3006               	movlw	6
  4275  0792  2FF2               	goto	l245
  4276  0793                     l253:	
  4277                           
  4278                           ;matrix_keypad.c: 71:     RD3 = 1;
  4279  0793  1588               	bsf	8,3	;volatile
  4280                           
  4281                           ;matrix_keypad.c: 72:     RD2 = 1;
  4282  0794  1508               	bsf	8,2	;volatile
  4283                           
  4284                           ;matrix_keypad.c: 73:     RD1 = 0;
  4285  0795  1088               	bcf	8,1	;volatile
  4286                           
  4287                           ;matrix_keypad.c: 74:     RD0 = 1;
  4288  0796  1408               	bsf	8,0	;volatile
  4289  0797                     l1839:	
  4290                           
  4291                           ;matrix_keypad.c: 76:     for (i = 100; i > 0; i--);
  4292  0797  3064               	movlw	100
  4293  0798  00F3               	movwf	scan_keypad@i
  4294  0799  3000               	movlw	0
  4295  079A  00F4               	movwf	scan_keypad@i+1
  4296  079B                     l1845:	
  4297  079B  30FF               	movlw	255
  4298  079C  07F3               	addwf	scan_keypad@i,f
  4299  079D  1803               	skipnc
  4300  079E  0AF4               	incf	scan_keypad@i+1,f
  4301  079F  30FF               	movlw	255
  4302  07A0  07F4               	addwf	scan_keypad@i+1,f
  4303  07A1                     l1847:	
  4304  07A1  0874               	movf	scan_keypad@i+1,w
  4305  07A2  3A80               	xorlw	128
  4306  07A3  00FF               	movwf	btemp+1
  4307  07A4  3080               	movlw	128
  4308  07A5  027F               	subwf	btemp+1,w
  4309  07A6  1D03               	skipz
  4310  07A7  2FAA               	goto	u1195
  4311  07A8  3001               	movlw	1
  4312  07A9  0273               	subwf	scan_keypad@i,w
  4313  07AA                     u1195:	
  4314  07AA  1803               	skipnc
  4315  07AB  2FAD               	goto	u1191
  4316  07AC  2FAE               	goto	u1190
  4317  07AD                     u1191:	
  4318  07AD  2F9B               	goto	l1845
  4319  07AE                     u1190:	
  4320  07AE                     l258:	
  4321                           
  4322                           ;matrix_keypad.c: 78:     if (RB0 == 0)
  4323  07AE  1283               	bcf	3,5	;RP0=0, select bank0
  4324  07AF  1303               	bcf	3,6	;RP1=0, select bank0
  4325  07B0  1806               	btfsc	6,0	;volatile
  4326  07B1  2FB3               	goto	u1201
  4327  07B2  2FB4               	goto	u1200
  4328  07B3                     u1201:	
  4329  07B3  2FB6               	goto	l259
  4330  07B4                     u1200:	
  4331  07B4                     l1849:	
  4332                           
  4333                           ;matrix_keypad.c: 79:     {;matrix_keypad.c: 80:         return 7;
  4334  07B4  3007               	movlw	7
  4335  07B5  2FF2               	goto	l245
  4336  07B6                     l259:	
  4337                           ;matrix_keypad.c: 82:     else if (RB1 == 0)
  4338                           
  4339  07B6  1886               	btfsc	6,1	;volatile
  4340  07B7  2FB9               	goto	u1211
  4341  07B8  2FBA               	goto	u1210
  4342  07B9                     u1211:	
  4343  07B9  2FBC               	goto	l261
  4344  07BA                     u1210:	
  4345  07BA                     l1855:	
  4346                           
  4347                           ;matrix_keypad.c: 83:     {;matrix_keypad.c: 84:         return 8;
  4348  07BA  3008               	movlw	8
  4349  07BB  2FF2               	goto	l245
  4350  07BC                     l261:	
  4351                           ;matrix_keypad.c: 86:     else if (RB2 == 0)
  4352                           
  4353  07BC  1906               	btfsc	6,2	;volatile
  4354  07BD  2FBF               	goto	u1221
  4355  07BE  2FC0               	goto	u1220
  4356  07BF                     u1221:	
  4357  07BF  2FC2               	goto	l260
  4358  07C0                     u1220:	
  4359  07C0                     l1861:	
  4360                           
  4361                           ;matrix_keypad.c: 87:     {;matrix_keypad.c: 88:         return 9;
  4362  07C0  3009               	movlw	9
  4363  07C1  2FF2               	goto	l245
  4364  07C2                     l260:	
  4365                           
  4366                           ;matrix_keypad.c: 91:     RD3 = 1;
  4367  07C2  1588               	bsf	8,3	;volatile
  4368                           
  4369                           ;matrix_keypad.c: 92:     RD2 = 1;
  4370  07C3  1508               	bsf	8,2	;volatile
  4371                           
  4372                           ;matrix_keypad.c: 93:     RD1 = 1;
  4373  07C4  1488               	bsf	8,1	;volatile
  4374                           
  4375                           ;matrix_keypad.c: 94:     RD0 = 0;
  4376  07C5  1008               	bcf	8,0	;volatile
  4377  07C6                     l1865:	
  4378                           
  4379                           ;matrix_keypad.c: 96:     for (i = 100; i > 0; i--);
  4380  07C6  3064               	movlw	100
  4381  07C7  00F3               	movwf	scan_keypad@i
  4382  07C8  3000               	movlw	0
  4383  07C9  00F4               	movwf	scan_keypad@i+1
  4384  07CA                     l1871:	
  4385  07CA  30FF               	movlw	255
  4386  07CB  07F3               	addwf	scan_keypad@i,f
  4387  07CC  1803               	skipnc
  4388  07CD  0AF4               	incf	scan_keypad@i+1,f
  4389  07CE  30FF               	movlw	255
  4390  07CF  07F4               	addwf	scan_keypad@i+1,f
  4391  07D0                     l1873:	
  4392  07D0  0874               	movf	scan_keypad@i+1,w
  4393  07D1  3A80               	xorlw	128
  4394  07D2  00FF               	movwf	btemp+1
  4395  07D3  3080               	movlw	128
  4396  07D4  027F               	subwf	btemp+1,w
  4397  07D5  1D03               	skipz
  4398  07D6  2FD9               	goto	u1235
  4399  07D7  3001               	movlw	1
  4400  07D8  0273               	subwf	scan_keypad@i,w
  4401  07D9                     u1235:	
  4402  07D9  1803               	skipnc
  4403  07DA  2FDC               	goto	u1231
  4404  07DB  2FDD               	goto	u1230
  4405  07DC                     u1231:	
  4406  07DC  2FCA               	goto	l1871
  4407  07DD                     u1230:	
  4408  07DD                     l265:	
  4409                           
  4410                           ;matrix_keypad.c: 98:     if (RB0 == 0)
  4411  07DD  1283               	bcf	3,5	;RP0=0, select bank0
  4412  07DE  1303               	bcf	3,6	;RP1=0, select bank0
  4413  07DF  1806               	btfsc	6,0	;volatile
  4414  07E0  2FE2               	goto	u1241
  4415  07E1  2FE3               	goto	u1240
  4416  07E2                     u1241:	
  4417  07E2  2FE5               	goto	l266
  4418  07E3                     u1240:	
  4419  07E3                     l1875:	
  4420                           
  4421                           ;matrix_keypad.c: 99:     {;matrix_keypad.c: 100:         return '*';
  4422  07E3  302A               	movlw	42
  4423  07E4  2FF2               	goto	l245
  4424  07E5                     l266:	
  4425                           ;matrix_keypad.c: 102:     else if (RB1 == 0)
  4426                           
  4427  07E5  1886               	btfsc	6,1	;volatile
  4428  07E6  2FE8               	goto	u1251
  4429  07E7  2FE9               	goto	u1250
  4430  07E8                     u1251:	
  4431  07E8  2FEB               	goto	l268
  4432  07E9                     u1250:	
  4433  07E9                     l1881:	
  4434                           
  4435                           ;matrix_keypad.c: 103:     {;matrix_keypad.c: 104:         return 0;
  4436  07E9  3000               	movlw	0
  4437  07EA  2FF2               	goto	l245
  4438  07EB                     l268:	
  4439                           ;matrix_keypad.c: 106:     else if (RB2 == 0)
  4440                           
  4441  07EB  1906               	btfsc	6,2	;volatile
  4442  07EC  2FEE               	goto	u1261
  4443  07ED  2FEF               	goto	u1260
  4444  07EE                     u1261:	
  4445  07EE  2FF1               	goto	l1891
  4446  07EF                     u1260:	
  4447  07EF                     l1887:	
  4448                           
  4449                           ;matrix_keypad.c: 107:     {;matrix_keypad.c: 108:         return '#';
  4450  07EF  3023               	movlw	35
  4451  07F0  2FF2               	goto	l245
  4452  07F1                     l1891:	
  4453                           
  4454                           ;matrix_keypad.c: 111:     return 0xFF;
  4455  07F1  30FF               	movlw	255
  4456  07F2                     l245:	
  4457  07F2  0008               	return
  4458  07F3                     __end_of_scan_keypad:	
  4459                           
  4460                           	psect	text11
  4461  057E                     __ptext11:	
  4462 ;; *************** function _power_on_screen *****************
  4463 ;; Defined at:
  4464 ;;		line 227 in file "main.c"
  4465 ;; Parameters:    Size  Location     Type
  4466 ;;		None
  4467 ;; Auto vars:     Size  Location     Type
  4468 ;;  i               1   15[BANK0 ] unsigned char 
  4469 ;; Return value:  Size  Location     Type
  4470 ;;                  1    wreg      void 
  4471 ;; Registers used:
  4472 ;;		wreg, fsr0l, fsr0h, status,2, status,0, btemp+1, pclath, cstack
  4473 ;; Tracked objects:
  4474 ;;		On entry : 0/0
  4475 ;;		On exit  : 0/0
  4476 ;;		Unchanged: 0/0
  4477 ;; Data sizes:     COMMON   BANK0   BANK1   BANK3   BANK2
  4478 ;;      Params:         0       0       0       0       0
  4479 ;;      Locals:         0       1       0       0       0
  4480 ;;      Temps:          0       3       0       0       0
  4481 ;;      Totals:         0       4       0       0       0
  4482 ;;Total ram usage:        4 bytes
  4483 ;; Hardware stack levels used:    1
  4484 ;; Hardware stack levels required when called:    3
  4485 ;; This function calls:
  4486 ;;		_clcd_print
  4487 ;;		_clcd_putch
  4488 ;; This function is called by:
  4489 ;;		_main
  4490 ;; This function uses a non-reentrant model
  4491 ;;
  4492                           
  4493                           
  4494                           ;psect for function _power_on_screen
  4495  057E                     _power_on_screen:	
  4496  057E                     l2553:	
  4497                           ;incstack = 0
  4498                           ; Regs used in _power_on_screen: [wreg-fsr0h+status,2+status,0+btemp+1+pclath+cstack]
  4499                           
  4500                           
  4501                           ;main.c: 229:         clcd_putch(0xFF, (0xD0 + i));;main.c: 231:     }
  4502  057E  1283               	bcf	3,5	;RP0=0, select bank0
  4503  057F  1303               	bcf	3,6	;RP1=0, select bank0
  4504  0580  01AF               	clrf	power_on_screen@i
  4505  0581                     l2559:	
  4506                           
  4507                           ;main.c: 232: ;main.c: 233: 
  4508  0581  082F               	movf	power_on_screen@i,w
  4509  0582  3E80               	addlw	128
  4510  0583  00AC               	movwf	??_power_on_screen
  4511  0584  082C               	movf	??_power_on_screen,w
  4512  0585  00AA               	movwf	clcd_putch@addr
  4513  0586  30FF               	movlw	255
  4514  0587  120A  158A  244E  120A  118A  	fcall	_clcd_putch
  4515  058C                     l2561:	
  4516                           
  4517                           ;main.c: 234:     _delay((unsigned long)((3000)*(20000000/4000.0)));
  4518  058C  3003               	movlw	3
  4519  058D  1283               	bcf	3,5	;RP0=0, select bank0
  4520  058E  1303               	bcf	3,6	;RP1=0, select bank0
  4521  058F  00AE               	movwf	??_power_on_screen+2
  4522  0590  308A               	movlw	138
  4523  0591  00AD               	movwf	??_power_on_screen+1
  4524  0592  3055               	movlw	85
  4525  0593  00AC               	movwf	??_power_on_screen
  4526  0594                     u2787:	
  4527  0594  0BAC               	decfsz	??_power_on_screen,f
  4528  0595  2D94               	goto	u2787
  4529  0596  0BAD               	decfsz	??_power_on_screen+1,f
  4530  0597  2D94               	goto	u2787
  4531  0598  0BAE               	decfsz	??_power_on_screen+2,f
  4532  0599  2D94               	goto	u2787
  4533  059A                     l2563:	
  4534                           
  4535                           ;main.c: 235: }
  4536  059A  3001               	movlw	1
  4537  059B  1283               	bcf	3,5	;RP0=0, select bank0
  4538  059C  1303               	bcf	3,6	;RP1=0, select bank0
  4539  059D  00AC               	movwf	??_power_on_screen
  4540  059E  082C               	movf	??_power_on_screen,w
  4541  059F  07AF               	addwf	power_on_screen@i,f
  4542  05A0                     l2565:	
  4543  05A0  3010               	movlw	16
  4544  05A1  022F               	subwf	power_on_screen@i,w
  4545  05A2  1C03               	skipc
  4546  05A3  2DA5               	goto	u2211
  4547  05A4  2DA6               	goto	u2210
  4548  05A5                     u2211:	
  4549  05A5  2D81               	goto	l2559
  4550  05A6                     u2210:	
  4551  05A6                     l2567:	
  4552                           
  4553                           ;main.c: 236: 
  4554  05A6  3067               	movlw	low (STR_9| (0+32768))
  4555  05A7  00A0               	movwf	clcd_print@str
  4556  05A8  3086               	movlw	high (STR_9| (0+32768))
  4557  05A9  00A1               	movwf	clcd_print@str+1
  4558  05AA  30C0               	movlw	192
  4559  05AB  00AC               	movwf	??_power_on_screen
  4560  05AC  082C               	movf	??_power_on_screen,w
  4561  05AD  00A2               	movwf	clcd_print@addr
  4562  05AE  120A  158A  24BC  120A  118A  	fcall	_clcd_print
  4563                           
  4564                           ;main.c: 237: void menu_display_screen(void)
  4565  05B3  3034               	movlw	low (STR_10| (0+32768))
  4566  05B4  1283               	bcf	3,5	;RP0=0, select bank0
  4567  05B5  1303               	bcf	3,6	;RP1=0, select bank0
  4568  05B6  00A0               	movwf	clcd_print@str
  4569  05B7  3086               	movlw	high (STR_10| (0+32768))
  4570  05B8  00A1               	movwf	clcd_print@str+1
  4571  05B9  3090               	movlw	144
  4572  05BA  00AC               	movwf	??_power_on_screen
  4573  05BB  082C               	movf	??_power_on_screen,w
  4574  05BC  00A2               	movwf	clcd_print@addr
  4575  05BD  120A  158A  24BC  120A  118A  	fcall	_clcd_print
  4576  05C2                     l2569:	
  4577                           
  4578                           ;main.c: 239:     clcd_print("1.Micro",(0x80 + 0));
  4579  05C2  1283               	bcf	3,5	;RP0=0, select bank0
  4580  05C3  1303               	bcf	3,6	;RP1=0, select bank0
  4581  05C4  01AF               	clrf	power_on_screen@i
  4582  05C5                     l2575:	
  4583                           
  4584                           ;main.c: 240:     clcd_print("2.Grill",(0xC0 + 0));;main.c: 241:     clcd_print("3.Conve
      +                          ction",(0x90 + 0));
  4585  05C5  082F               	movf	power_on_screen@i,w
  4586  05C6  3ED0               	addlw	208
  4587  05C7  00AC               	movwf	??_power_on_screen
  4588  05C8  082C               	movf	??_power_on_screen,w
  4589  05C9  00AA               	movwf	clcd_putch@addr
  4590  05CA  30FF               	movlw	255
  4591  05CB  120A  158A  244E  120A  118A  	fcall	_clcd_putch
  4592  05D0                     l2577:	
  4593                           
  4594                           ;main.c: 242:     clcd_print("4.Start",(0xD0 + 0));
  4595  05D0  3003               	movlw	3
  4596  05D1  1283               	bcf	3,5	;RP0=0, select bank0
  4597  05D2  1303               	bcf	3,6	;RP1=0, select bank0
  4598  05D3  00AE               	movwf	??_power_on_screen+2
  4599  05D4  308A               	movlw	138
  4600  05D5  00AD               	movwf	??_power_on_screen+1
  4601  05D6  3055               	movlw	85
  4602  05D7  00AC               	movwf	??_power_on_screen
  4603  05D8                     u2797:	
  4604  05D8  0BAC               	decfsz	??_power_on_screen,f
  4605  05D9  2DD8               	goto	u2797
  4606  05DA  0BAD               	decfsz	??_power_on_screen+1,f
  4607  05DB  2DD8               	goto	u2797
  4608  05DC  0BAE               	decfsz	??_power_on_screen+2,f
  4609  05DD  2DD8               	goto	u2797
  4610  05DE                     l2579:	
  4611                           
  4612                           ;main.c: 243: }
  4613  05DE  3001               	movlw	1
  4614  05DF  1283               	bcf	3,5	;RP0=0, select bank0
  4615  05E0  1303               	bcf	3,6	;RP1=0, select bank0
  4616  05E1  00AC               	movwf	??_power_on_screen
  4617  05E2  082C               	movf	??_power_on_screen,w
  4618  05E3  07AF               	addwf	power_on_screen@i,f
  4619  05E4                     l2581:	
  4620  05E4  3010               	movlw	16
  4621  05E5  022F               	subwf	power_on_screen@i,w
  4622  05E6  1C03               	skipc
  4623  05E7  2DE9               	goto	u2221
  4624  05E8  2DEA               	goto	u2220
  4625  05E9                     u2221:	
  4626  05E9  2DC5               	goto	l2575
  4627  05EA                     u2220:	
  4628  05EA                     l2583:	
  4629                           
  4630                           ;main.c: 246: {
  4631  05EA  304D               	movlw	77
  4632  05EB  1283               	bcf	3,5	;RP0=0, select bank0
  4633  05EC  1303               	bcf	3,6	;RP1=0, select bank0
  4634  05ED  00AE               	movwf	??_power_on_screen+2
  4635  05EE  3019               	movlw	25
  4636  05EF  00AD               	movwf	??_power_on_screen+1
  4637  05F0  304F               	movlw	79
  4638  05F1  00AC               	movwf	??_power_on_screen
  4639  05F2                     u2807:	
  4640  05F2  0BAC               	decfsz	??_power_on_screen,f
  4641  05F3  2DF2               	goto	u2807
  4642  05F4  0BAD               	decfsz	??_power_on_screen+1,f
  4643  05F5  2DF2               	goto	u2807
  4644  05F6  0BAE               	decfsz	??_power_on_screen+2,f
  4645  05F7  2DF2               	goto	u2807
  4646  05F8                     l122:	
  4647  05F8  0008               	return
  4648  05F9                     __end_of_power_on_screen:	
  4649                           
  4650                           	psect	text12
  4651  0C4E                     __ptext12:	
  4652 ;; *************** function _clcd_putch *****************
  4653 ;; Defined at:
  4654 ;;		line 56 in file "clcd.c"
  4655 ;; Parameters:    Size  Location     Type
  4656 ;;  data            1    wreg     const unsigned char 
  4657 ;;  addr            1   10[BANK0 ] unsigned char 
  4658 ;; Auto vars:     Size  Location     Type
  4659 ;;  data            1   11[BANK0 ] const unsigned char 
  4660 ;; Return value:  Size  Location     Type
  4661 ;;                  1    wreg      void 
  4662 ;; Registers used:
  4663 ;;		wreg, status,2, status,0, pclath, cstack
  4664 ;; Tracked objects:
  4665 ;;		On entry : 0/0
  4666 ;;		On exit  : 0/0
  4667 ;;		Unchanged: 0/0
  4668 ;; Data sizes:     COMMON   BANK0   BANK1   BANK3   BANK2
  4669 ;;      Params:         0       1       0       0       0
  4670 ;;      Locals:         0       1       0       0       0
  4671 ;;      Temps:          0       0       0       0       0
  4672 ;;      Totals:         0       2       0       0       0
  4673 ;;Total ram usage:        2 bytes
  4674 ;; Hardware stack levels used:    1
  4675 ;; Hardware stack levels required when called:    2
  4676 ;; This function calls:
  4677 ;;		_clcd_write
  4678 ;; This function is called by:
  4679 ;;		_time_display_screen
  4680 ;;		_power_on_screen
  4681 ;;		_set_temp
  4682 ;;		_set_time
  4683 ;; This function uses a non-reentrant model
  4684 ;;
  4685                           
  4686                           
  4687                           ;psect for function _clcd_putch
  4688  0C4E                     _clcd_putch:	
  4689                           
  4690                           ;incstack = 0
  4691                           ; Regs used in _clcd_putch: [wreg+status,2+status,0+pclath+cstack]
  4692                           ;clcd_putch@data stored from wreg
  4693  0C4E  1283               	bcf	3,5	;RP0=0, select bank0
  4694  0C4F  1303               	bcf	3,6	;RP1=0, select bank0
  4695  0C50  00AB               	movwf	clcd_putch@data
  4696  0C51                     l1789:	
  4697                           
  4698                           ;clcd.c: 56: void clcd_putch(const char data, unsigned char addr);clcd.c: 57: {;clcd.c: 
      +                          58:     clcd_write(addr, 0);
  4699  0C51  01F3               	clrf	clcd_write@mode
  4700  0C52  082A               	movf	clcd_putch@addr,w
  4701  0C53  120A  158A  24EF  120A  158A  	fcall	_clcd_write
  4702                           
  4703                           ;clcd.c: 59:     clcd_write(data, 1);
  4704  0C58  01F3               	clrf	clcd_write@mode
  4705  0C59  0AF3               	incf	clcd_write@mode,f
  4706  0C5A  1283               	bcf	3,5	;RP0=0, select bank0
  4707  0C5B  1303               	bcf	3,6	;RP1=0, select bank0
  4708  0C5C  082B               	movf	clcd_putch@data,w
  4709  0C5D  120A  158A  24EF  120A  158A  	fcall	_clcd_write
  4710  0C62                     l209:	
  4711  0C62  0008               	return
  4712  0C63                     __end_of_clcd_putch:	
  4713                           
  4714                           	psect	text13
  4715  0D97                     __ptext13:	
  4716 ;; *************** function _menu_display_screen *****************
  4717 ;; Defined at:
  4718 ;;		line 249 in file "main.c"
  4719 ;; Parameters:    Size  Location     Type
  4720 ;;		None
  4721 ;; Auto vars:     Size  Location     Type
  4722 ;;		None
  4723 ;; Return value:  Size  Location     Type
  4724 ;;                  1    wreg      void 
  4725 ;; Registers used:
  4726 ;;		wreg, fsr0l, fsr0h, status,2, status,0, btemp+1, pclath, cstack
  4727 ;; Tracked objects:
  4728 ;;		On entry : 0/0
  4729 ;;		On exit  : 0/0
  4730 ;;		Unchanged: 0/0
  4731 ;; Data sizes:     COMMON   BANK0   BANK1   BANK3   BANK2
  4732 ;;      Params:         0       0       0       0       0
  4733 ;;      Locals:         0       0       0       0       0
  4734 ;;      Temps:          1       0       0       0       0
  4735 ;;      Totals:         1       0       0       0       0
  4736 ;;Total ram usage:        1 bytes
  4737 ;; Hardware stack levels used:    1
  4738 ;; Hardware stack levels required when called:    3
  4739 ;; This function calls:
  4740 ;;		_clcd_print
  4741 ;; This function is called by:
  4742 ;;		_main
  4743 ;; This function uses a non-reentrant model
  4744 ;;
  4745                           
  4746                           
  4747                           ;psect for function _menu_display_screen
  4748  0D97                     _menu_display_screen:	
  4749  0D97                     l2585:	
  4750                           ;incstack = 0
  4751                           ; Regs used in _menu_display_screen: [wreg-fsr0h+status,2+status,0+btemp+1+pclath+cstack
      +                          ]
  4752                           
  4753                           
  4754                           ;main.c: 251:         key_count = 0;
  4755  0D97  3015               	movlw	low (STR_11| (0+32768))
  4756  0D98  1283               	bcf	3,5	;RP0=0, select bank0
  4757  0D99  1303               	bcf	3,6	;RP1=0, select bank0
  4758  0D9A  00A0               	movwf	clcd_print@str
  4759  0D9B  3087               	movlw	high (STR_11| (0+32768))
  4760  0D9C  00A1               	movwf	clcd_print@str+1
  4761  0D9D  3080               	movlw	128
  4762  0D9E  00F7               	movwf	??_menu_display_screen
  4763  0D9F  0877               	movf	??_menu_display_screen,w
  4764  0DA0  00A2               	movwf	clcd_print@addr
  4765  0DA1  120A  158A  24BC  120A  158A  	fcall	_clcd_print
  4766                           
  4767                           ;main.c: 252:         wait = 0;
  4768  0DA6  300D               	movlw	low (STR_12| (0+32768))
  4769  0DA7  1283               	bcf	3,5	;RP0=0, select bank0
  4770  0DA8  1303               	bcf	3,6	;RP1=0, select bank0
  4771  0DA9  00A0               	movwf	clcd_print@str
  4772  0DAA  3087               	movlw	high (STR_12| (0+32768))
  4773  0DAB  00A1               	movwf	clcd_print@str+1
  4774  0DAC  30C0               	movlw	192
  4775  0DAD  00F7               	movwf	??_menu_display_screen
  4776  0DAE  0877               	movf	??_menu_display_screen,w
  4777  0DAF  00A2               	movwf	clcd_print@addr
  4778  0DB0  120A  158A  24BC  120A  158A  	fcall	_clcd_print
  4779                           
  4780                           ;main.c: 253:         blink = 0;
  4781  0DB5  30DC               	movlw	low (STR_13| (0+32768))
  4782  0DB6  1283               	bcf	3,5	;RP0=0, select bank0
  4783  0DB7  1303               	bcf	3,6	;RP1=0, select bank0
  4784  0DB8  00A0               	movwf	clcd_print@str
  4785  0DB9  3086               	movlw	high (STR_13| (0+32768))
  4786  0DBA  00A1               	movwf	clcd_print@str+1
  4787  0DBB  3090               	movlw	144
  4788  0DBC  00F7               	movwf	??_menu_display_screen
  4789  0DBD  0877               	movf	??_menu_display_screen,w
  4790  0DBE  00A2               	movwf	clcd_print@addr
  4791  0DBF  120A  158A  24BC  120A  158A  	fcall	_clcd_print
  4792                           
  4793                           ;main.c: 254:         temp = 0;
  4794  0DC4  3025               	movlw	low (STR_14| (0+32768))
  4795  0DC5  1283               	bcf	3,5	;RP0=0, select bank0
  4796  0DC6  1303               	bcf	3,6	;RP1=0, select bank0
  4797  0DC7  00A0               	movwf	clcd_print@str
  4798  0DC8  3087               	movlw	high (STR_14| (0+32768))
  4799  0DC9  00A1               	movwf	clcd_print@str+1
  4800  0DCA  30D0               	movlw	208
  4801  0DCB  00F7               	movwf	??_menu_display_screen
  4802  0DCC  0877               	movf	??_menu_display_screen,w
  4803  0DCD  00A2               	movwf	clcd_print@addr
  4804  0DCE  120A  158A  24BC  120A  158A  	fcall	_clcd_print
  4805  0DD3                     l125:	
  4806  0DD3  0008               	return
  4807  0DD4                     __end_of_menu_display_screen:	
  4808                           
  4809                           	psect	text14
  4810  0CBC                     __ptext14:	
  4811 ;; *************** function _clcd_print *****************
  4812 ;; Defined at:
  4813 ;;		line 62 in file "clcd.c"
  4814 ;; Parameters:    Size  Location     Type
  4815 ;;  str             2    0[BANK0 ] PTR const unsigned char 
  4816 ;;		 -> STR_28(3), STR_27(3), STR_26(17), STR_25(7), 
  4817 ;;		 -> STR_24(17), STR_23(4), STR_22(17), STR_21(13), 
  4818 ;;		 -> STR_20(16), STR_19(18), STR_18(17), STR_17(17), 
  4819 ;;		 -> STR_16(8), STR_15(15), STR_14(8), STR_13(13), 
  4820 ;;		 -> STR_12(8), STR_11(8), STR_10(17), STR_9(16), 
  4821 ;;		 -> STR_8(11), STR_7(8), STR_6(9), STR_5(16), 
  4822 ;;		 -> STR_4(8), STR_3(13), STR_2(13), STR_1(15), 
  4823 ;;  addr            1    2[BANK0 ] unsigned char 
  4824 ;; Auto vars:     Size  Location     Type
  4825 ;;		None
  4826 ;; Return value:  Size  Location     Type
  4827 ;;                  1    wreg      void 
  4828 ;; Registers used:
  4829 ;;		wreg, fsr0l, fsr0h, status,2, status,0, btemp+1, pclath, cstack
  4830 ;; Tracked objects:
  4831 ;;		On entry : 0/0
  4832 ;;		On exit  : 0/0
  4833 ;;		Unchanged: 0/0
  4834 ;; Data sizes:     COMMON   BANK0   BANK1   BANK3   BANK2
  4835 ;;      Params:         0       3       0       0       0
  4836 ;;      Locals:         0       0       0       0       0
  4837 ;;      Temps:          0       0       0       0       0
  4838 ;;      Totals:         0       3       0       0       0
  4839 ;;Total ram usage:        3 bytes
  4840 ;; Hardware stack levels used:    1
  4841 ;; Hardware stack levels required when called:    2
  4842 ;; This function calls:
  4843 ;;		_clcd_write
  4844 ;; This function is called by:
  4845 ;;		_main
  4846 ;;		_door_status
  4847 ;;		_time_display_screen
  4848 ;;		_power_on_screen
  4849 ;;		_menu_display_screen
  4850 ;;		_set_temp
  4851 ;;		_set_time
  4852 ;; This function uses a non-reentrant model
  4853 ;;
  4854                           
  4855                           
  4856                           ;psect for function _clcd_print
  4857  0CBC                     _clcd_print:	
  4858  0CBC                     l2495:	
  4859                           ;incstack = 0
  4860                           ; Regs used in _clcd_print: [wreg-fsr0h+status,2+status,0+btemp+1+pclath+cstack]
  4861                           
  4862                           
  4863                           ;clcd.c: 62: void clcd_print(const char *str, unsigned char addr);clcd.c: 63: {;clcd.c: 
      +                          64:     clcd_write(addr, 0);
  4864  0CBC  01F3               	clrf	clcd_write@mode
  4865  0CBD  1283               	bcf	3,5	;RP0=0, select bank0
  4866  0CBE  1303               	bcf	3,6	;RP1=0, select bank0
  4867  0CBF  0822               	movf	clcd_print@addr,w
  4868  0CC0  120A  158A  24EF  120A  158A  	fcall	_clcd_write
  4869                           
  4870                           ;clcd.c: 66:     while (*str != '\0')
  4871  0CC5  2CDE               	goto	l2501
  4872  0CC6                     l2497:	
  4873                           
  4874                           ;clcd.c: 67:     {;clcd.c: 68:         clcd_write(*str, 1);
  4875  0CC6  01F3               	clrf	clcd_write@mode
  4876  0CC7  0AF3               	incf	clcd_write@mode,f
  4877  0CC8  0821               	movf	clcd_print@str+1,w
  4878  0CC9  00FF               	movwf	btemp+1
  4879  0CCA  0820               	movf	clcd_print@str,w
  4880  0CCB  0084               	movwf	4
  4881  0CCC  120A  158A  2000  120A  158A  	fcall	stringtab
  4882  0CD1  120A  158A  24EF  120A  158A  	fcall	_clcd_write
  4883  0CD6                     l2499:	
  4884                           
  4885                           ;clcd.c: 69:         str++;
  4886  0CD6  3001               	movlw	1
  4887  0CD7  1283               	bcf	3,5	;RP0=0, select bank0
  4888  0CD8  1303               	bcf	3,6	;RP1=0, select bank0
  4889  0CD9  07A0               	addwf	clcd_print@str,f
  4890  0CDA  1803               	skipnc
  4891  0CDB  0AA1               	incf	clcd_print@str+1,f
  4892  0CDC  3000               	movlw	0
  4893  0CDD  07A1               	addwf	clcd_print@str+1,f
  4894  0CDE                     l2501:	
  4895                           
  4896                           ;clcd.c: 66:     while (*str != '\0')
  4897  0CDE  1283               	bcf	3,5	;RP0=0, select bank0
  4898  0CDF  1303               	bcf	3,6	;RP1=0, select bank0
  4899  0CE0  0821               	movf	clcd_print@str+1,w
  4900  0CE1  00FF               	movwf	btemp+1
  4901  0CE2  0820               	movf	clcd_print@str,w
  4902  0CE3  0084               	movwf	4
  4903  0CE4  120A  158A  2000  120A  158A  	fcall	stringtab
  4904  0CE9  3A00               	xorlw	0
  4905  0CEA  1D03               	skipz
  4906  0CEB  2CED               	goto	u2091
  4907  0CEC  2CEE               	goto	u2090
  4908  0CED                     u2091:	
  4909  0CED  2CC6               	goto	l2497
  4910  0CEE                     u2090:	
  4911  0CEE                     l215:	
  4912  0CEE  0008               	return
  4913  0CEF                     __end_of_clcd_print:	
  4914                           
  4915                           	psect	text15
  4916  0C78                     __ptext15:	
  4917 ;; *************** function _init_config *****************
  4918 ;; Defined at:
  4919 ;;		line 14 in file "main.c"
  4920 ;; Parameters:    Size  Location     Type
  4921 ;;		None
  4922 ;; Auto vars:     Size  Location     Type
  4923 ;;		None
  4924 ;; Return value:  Size  Location     Type
  4925 ;;                  1    wreg      void 
  4926 ;; Registers used:
  4927 ;;		wreg, status,2, status,0, pclath, cstack
  4928 ;; Tracked objects:
  4929 ;;		On entry : 0/0
  4930 ;;		On exit  : 0/0
  4931 ;;		Unchanged: 0/0
  4932 ;; Data sizes:     COMMON   BANK0   BANK1   BANK3   BANK2
  4933 ;;      Params:         0       0       0       0       0
  4934 ;;      Locals:         0       0       0       0       0
  4935 ;;      Temps:          0       0       0       0       0
  4936 ;;      Totals:         0       0       0       0       0
  4937 ;;Total ram usage:        0 bytes
  4938 ;; Hardware stack levels used:    1
  4939 ;; Hardware stack levels required when called:    4
  4940 ;; This function calls:
  4941 ;;		_init_clcd
  4942 ;;		_init_matrix_keypad
  4943 ;;		_init_timer2
  4944 ;; This function is called by:
  4945 ;;		_main
  4946 ;; This function uses a non-reentrant model
  4947 ;;
  4948                           
  4949                           
  4950                           ;psect for function _init_config
  4951  0C78                     _init_config:	
  4952  0C78                     l1991:	
  4953                           ;incstack = 0
  4954                           ; Regs used in _init_config: [wreg+status,2+status,0+pclath+cstack]
  4955                           
  4956                           
  4957                           ;main.c: 16: 
  4958  0C78  120A  158A  2422  120A  158A  	fcall	_init_clcd
  4959                           
  4960                           ;main.c: 17:     RC1 = 0;
  4961  0C7D  120A  158A  242D  120A  158A  	fcall	_init_matrix_keypad
  4962  0C82                     l1993:	
  4963                           
  4964                           ;main.c: 20:     TRISB3 = 1;
  4965  0C82  1683               	bsf	3,5	;RP0=1, select bank1
  4966  0C83  1303               	bcf	3,6	;RP1=0, select bank1
  4967  0C84  1107               	bcf	7,2	;volatile
  4968  0C85                     l1995:	
  4969                           
  4970                           ;main.c: 21: 
  4971  0C85  1283               	bcf	3,5	;RP0=0, select bank0
  4972  0C86  1303               	bcf	3,6	;RP1=0, select bank0
  4973  0C87  1107               	bcf	7,2	;volatile
  4974                           
  4975                           ;main.c: 24: void main(void) {
  4976  0C88  120A  118A  27F3  120A  158A  	fcall	_init_timer2
  4977  0C8D                     l1997:	
  4978                           
  4979                           ;main.c: 26: 
  4980  0C8D  170B               	bsf	11,6	;volatile
  4981  0C8E                     l1999:	
  4982                           
  4983                           ;main.c: 27: 
  4984  0C8E  178B               	bsf	11,7	;volatile
  4985  0C8F                     l2001:	
  4986                           
  4987                           ;main.c: 29:     int reset_flag;
  4988  0C8F  1283               	bcf	3,5	;RP0=0, select bank0
  4989  0C90  1303               	bcf	3,6	;RP1=0, select bank0
  4990  0C91  1087               	bcf	7,1	;volatile
  4991  0C92                     l2003:	
  4992                           
  4993                           ;main.c: 30:     while (1) {
  4994  0C92  1683               	bsf	3,5	;RP0=1, select bank1
  4995  0C93  1303               	bcf	3,6	;RP1=0, select bank1
  4996  0C94  1087               	bcf	7,1	;volatile
  4997  0C95                     l2005:	
  4998                           
  4999                           ;main.c: 32: 
  5000  0C95  1586               	bsf	6,3	;volatile
  5001  0C96                     l59:	
  5002  0C96  0008               	return
  5003  0C97                     __end_of_init_config:	
  5004                           
  5005                           	psect	text16
  5006  07F3                     __ptext16:	
  5007 ;; *************** function _init_timer2 *****************
  5008 ;; Defined at:
  5009 ;;		line 4 in file "timers.c"
  5010 ;; Parameters:    Size  Location     Type
  5011 ;;		None
  5012 ;; Auto vars:     Size  Location     Type
  5013 ;;		None
  5014 ;; Return value:  Size  Location     Type
  5015 ;;                  1    wreg      void 
  5016 ;; Registers used:
  5017 ;;		wreg
  5018 ;; Tracked objects:
  5019 ;;		On entry : 0/0
  5020 ;;		On exit  : 0/0
  5021 ;;		Unchanged: 0/0
  5022 ;; Data sizes:     COMMON   BANK0   BANK1   BANK3   BANK2
  5023 ;;      Params:         0       0       0       0       0
  5024 ;;      Locals:         0       0       0       0       0
  5025 ;;      Temps:          0       0       0       0       0
  5026 ;;      Totals:         0       0       0       0       0
  5027 ;;Total ram usage:        0 bytes
  5028 ;; Hardware stack levels used:    1
  5029 ;; Hardware stack levels required when called:    1
  5030 ;; This function calls:
  5031 ;;		Nothing
  5032 ;; This function is called by:
  5033 ;;		_init_config
  5034 ;; This function uses a non-reentrant model
  5035 ;;
  5036                           
  5037                           
  5038                           ;psect for function _init_timer2
  5039  07F3                     _init_timer2:	
  5040  07F3                     l1769:	
  5041                           ;incstack = 0
  5042                           ; Regs used in _init_timer2: [wreg]
  5043                           
  5044                           
  5045                           ;timers.c: 7:     T2CKPS0 = 1;
  5046  07F3  1283               	bcf	3,5	;RP0=0, select bank0
  5047  07F4  1303               	bcf	3,6	;RP1=0, select bank0
  5048  07F5  1412               	bsf	18,0	;volatile
  5049                           
  5050                           ;timers.c: 8:     T2CKPS1 = 1;
  5051  07F6  1492               	bsf	18,1	;volatile
  5052  07F7                     l1771:	
  5053                           
  5054                           ;timers.c: 11:     PR2 = 250;
  5055  07F7  30FA               	movlw	250
  5056  07F8  1683               	bsf	3,5	;RP0=1, select bank1
  5057  07F9  1303               	bcf	3,6	;RP1=0, select bank1
  5058  07FA  0092               	movwf	18	;volatile
  5059  07FB                     l1773:	
  5060                           
  5061                           ;timers.c: 14:     TMR2IE = 1;
  5062  07FB  148C               	bsf	12,1	;volatile
  5063  07FC                     l1775:	
  5064                           
  5065                           ;timers.c: 17:     TMR2ON = 0;
  5066  07FC  1283               	bcf	3,5	;RP0=0, select bank0
  5067  07FD  1303               	bcf	3,6	;RP1=0, select bank0
  5068  07FE  1112               	bcf	18,2	;volatile
  5069  07FF                     l293:	
  5070  07FF  0008               	return
  5071  0800                     __end_of_init_timer2:	
  5072                           
  5073                           	psect	text17
  5074  0C2D                     __ptext17:	
  5075 ;; *************** function _init_matrix_keypad *****************
  5076 ;; Defined at:
  5077 ;;		line 4 in file "matrix_keypad.c"
  5078 ;; Parameters:    Size  Location     Type
  5079 ;;		None
  5080 ;; Auto vars:     Size  Location     Type
  5081 ;;		None
  5082 ;; Return value:  Size  Location     Type
  5083 ;;                  1    wreg      void 
  5084 ;; Registers used:
  5085 ;;		wreg, status,2
  5086 ;; Tracked objects:
  5087 ;;		On entry : 0/0
  5088 ;;		On exit  : 0/0
  5089 ;;		Unchanged: 0/0
  5090 ;; Data sizes:     COMMON   BANK0   BANK1   BANK3   BANK2
  5091 ;;      Params:         0       0       0       0       0
  5092 ;;      Locals:         0       0       0       0       0
  5093 ;;      Temps:          0       0       0       0       0
  5094 ;;      Totals:         0       0       0       0       0
  5095 ;;Total ram usage:        0 bytes
  5096 ;; Hardware stack levels used:    1
  5097 ;; Hardware stack levels required when called:    1
  5098 ;; This function calls:
  5099 ;;		Nothing
  5100 ;; This function is called by:
  5101 ;;		_init_config
  5102 ;; This function uses a non-reentrant model
  5103 ;;
  5104                           
  5105                           
  5106                           ;psect for function _init_matrix_keypad
  5107  0C2D                     _init_matrix_keypad:	
  5108  0C2D                     l1757:	
  5109                           ;incstack = 0
  5110                           ; Regs used in _init_matrix_keypad: [wreg+status,2]
  5111                           
  5112                           
  5113                           ;matrix_keypad.c: 8:     TRISB = TRISB | 0x07;
  5114  0C2D  1683               	bsf	3,5	;RP0=1, select bank1
  5115  0C2E  1303               	bcf	3,6	;RP1=0, select bank1
  5116  0C2F  0806               	movf	6,w	;volatile
  5117  0C30  3807               	iorlw	7
  5118  0C31  0086               	movwf	6	;volatile
  5119                           
  5120                           ;matrix_keypad.c: 12:     TRISD = TRISD & 0xF0;
  5121  0C32  0808               	movf	8,w	;volatile
  5122  0C33  39F0               	andlw	240
  5123  0C34  0088               	movwf	8	;volatile
  5124  0C35                     l1759:	
  5125                           
  5126                           ;matrix_keypad.c: 15:     nRBPU = 0;
  5127  0C35  1381               	bcf	1,7	;volatile
  5128  0C36                     l1761:	
  5129                           
  5130                           ;matrix_keypad.c: 18:     RD3 = 1;
  5131  0C36  1283               	bcf	3,5	;RP0=0, select bank0
  5132  0C37  1303               	bcf	3,6	;RP1=0, select bank0
  5133  0C38  1588               	bsf	8,3	;volatile
  5134  0C39                     l1763:	
  5135                           
  5136                           ;matrix_keypad.c: 19:     RD2 = 1;
  5137  0C39  1508               	bsf	8,2	;volatile
  5138  0C3A                     l1765:	
  5139                           
  5140                           ;matrix_keypad.c: 20:     RD1 = 1;
  5141  0C3A  1488               	bsf	8,1	;volatile
  5142  0C3B                     l1767:	
  5143                           
  5144                           ;matrix_keypad.c: 21:     RD0 = 1;
  5145  0C3B  1408               	bsf	8,0	;volatile
  5146  0C3C                     l238:	
  5147  0C3C  0008               	return
  5148  0C3D                     __end_of_init_matrix_keypad:	
  5149                           
  5150                           	psect	text18
  5151  0C22                     __ptext18:	
  5152 ;; *************** function _init_clcd *****************
  5153 ;; Defined at:
  5154 ;;		line 44 in file "clcd.c"
  5155 ;; Parameters:    Size  Location     Type
  5156 ;;		None
  5157 ;; Auto vars:     Size  Location     Type
  5158 ;;		None
  5159 ;; Return value:  Size  Location     Type
  5160 ;;                  1    wreg      void 
  5161 ;; Registers used:
  5162 ;;		wreg, status,2, status,0, pclath, cstack
  5163 ;; Tracked objects:
  5164 ;;		On entry : 0/0
  5165 ;;		On exit  : 0/0
  5166 ;;		Unchanged: 0/0
  5167 ;; Data sizes:     COMMON   BANK0   BANK1   BANK3   BANK2
  5168 ;;      Params:         0       0       0       0       0
  5169 ;;      Locals:         0       0       0       0       0
  5170 ;;      Temps:          0       0       0       0       0
  5171 ;;      Totals:         0       0       0       0       0
  5172 ;;Total ram usage:        0 bytes
  5173 ;; Hardware stack levels used:    1
  5174 ;; Hardware stack levels required when called:    3
  5175 ;; This function calls:
  5176 ;;		_init_display_controller
  5177 ;; This function is called by:
  5178 ;;		_init_config
  5179 ;; This function uses a non-reentrant model
  5180 ;;
  5181                           
  5182                           
  5183                           ;psect for function _init_clcd
  5184  0C22                     _init_clcd:	
  5185  0C22                     l1749:	
  5186                           ;incstack = 0
  5187                           ; Regs used in _init_clcd: [wreg+status,2+status,0+pclath+cstack]
  5188                           
  5189                           
  5190                           ;clcd.c: 47:     TRISD = 0x00;
  5191  0C22  1683               	bsf	3,5	;RP0=1, select bank1
  5192  0C23  1303               	bcf	3,6	;RP1=0, select bank1
  5193  0C24  0188               	clrf	8	;volatile
  5194  0C25                     l1751:	
  5195                           
  5196                           ;clcd.c: 50:     TRISE2 = 0;
  5197  0C25  1109               	bcf	9,2	;volatile
  5198  0C26                     l1753:	
  5199                           
  5200                           ;clcd.c: 51:     TRISE1 = 0;
  5201  0C26  1089               	bcf	9,1	;volatile
  5202  0C27                     l1755:	
  5203                           
  5204                           ;clcd.c: 53:     init_display_controller();
  5205  0C27  120A  158A  262F  120A  158A  	fcall	_init_display_controller
  5206  0C2C                     l206:	
  5207  0C2C  0008               	return
  5208  0C2D                     __end_of_init_clcd:	
  5209                           
  5210                           	psect	text19
  5211  0E2F                     __ptext19:	
  5212 ;; *************** function _init_display_controller *****************
  5213 ;; Defined at:
  5214 ;;		line 21 in file "clcd.c"
  5215 ;; Parameters:    Size  Location     Type
  5216 ;;		None
  5217 ;; Auto vars:     Size  Location     Type
  5218 ;;		None
  5219 ;; Return value:  Size  Location     Type
  5220 ;;                  1    wreg      void 
  5221 ;; Registers used:
  5222 ;;		wreg, status,2, status,0, pclath, cstack
  5223 ;; Tracked objects:
  5224 ;;		On entry : 0/0
  5225 ;;		On exit  : 0/0
  5226 ;;		Unchanged: 0/0
  5227 ;; Data sizes:     COMMON   BANK0   BANK1   BANK3   BANK2
  5228 ;;      Params:         0       0       0       0       0
  5229 ;;      Locals:         0       0       0       0       0
  5230 ;;      Temps:          2       0       0       0       0
  5231 ;;      Totals:         2       0       0       0       0
  5232 ;;Total ram usage:        2 bytes
  5233 ;; Hardware stack levels used:    1
  5234 ;; Hardware stack levels required when called:    2
  5235 ;; This function calls:
  5236 ;;		_clcd_write
  5237 ;; This function is called by:
  5238 ;;		_init_clcd
  5239 ;; This function uses a non-reentrant model
  5240 ;;
  5241                           
  5242                           
  5243                           ;psect for function _init_display_controller
  5244  0E2F                     _init_display_controller:	
  5245  0E2F                     l1725:	
  5246                           ;incstack = 0
  5247                           ; Regs used in _init_display_controller: [wreg+status,2+status,0+pclath+cstack]
  5248                           
  5249                           
  5250                           ;clcd.c: 24:     _delay((unsigned long)((30)*(20000000/4000.0)));
  5251  0E2F  30C3               	movlw	195
  5252  0E30  00F8               	movwf	??_init_display_controller+1
  5253  0E31  30CD               	movlw	205
  5254  0E32  00F7               	movwf	??_init_display_controller
  5255  0E33                     u2817:	
  5256  0E33  0BF7               	decfsz	??_init_display_controller,f
  5257  0E34  2E33               	goto	u2817
  5258  0E35  0BF8               	decfsz	??_init_display_controller+1,f
  5259  0E36  2E33               	goto	u2817
  5260  0E37                     l1727:	
  5261                           
  5262                           ;clcd.c: 27:     clcd_write(0x33, 0);
  5263  0E37  01F3               	clrf	clcd_write@mode
  5264  0E38  3033               	movlw	51
  5265  0E39  120A  158A  24EF  120A  158A  	fcall	_clcd_write
  5266  0E3E                     l1729:	
  5267                           
  5268                           ;clcd.c: 28:     _delay((unsigned long)((4100)*(20000000/4000000.0)));
  5269  0E3E  301B               	movlw	27
  5270  0E3F  00F8               	movwf	??_init_display_controller+1
  5271  0E40  309E               	movlw	158
  5272  0E41  00F7               	movwf	??_init_display_controller
  5273  0E42                     u2827:	
  5274  0E42  0BF7               	decfsz	??_init_display_controller,f
  5275  0E43  2E42               	goto	u2827
  5276  0E44  0BF8               	decfsz	??_init_display_controller+1,f
  5277  0E45  2E42               	goto	u2827
  5278  0E46  0000               	nop
  5279                           
  5280                           ;clcd.c: 29:     clcd_write(0x33, 0);
  5281  0E47  01F3               	clrf	clcd_write@mode
  5282  0E48  3033               	movlw	51
  5283  0E49  120A  158A  24EF  120A  158A  	fcall	_clcd_write
  5284  0E4E                     l1731:	
  5285                           
  5286                           ;clcd.c: 30:     _delay((unsigned long)((100)*(20000000/4000000.0)));
  5287  0E4E  30A6               	movlw	166
  5288  0E4F  00F7               	movwf	??_init_display_controller
  5289  0E50                     u2837:	
  5290  0E50  0BF7               	decfsz	??_init_display_controller,f
  5291  0E51  2E50               	goto	u2837
  5292  0E52  0000               	nop
  5293  0E53                     l1733:	
  5294                           
  5295                           ;clcd.c: 31:     clcd_write(0x33, 0);
  5296  0E53  01F3               	clrf	clcd_write@mode
  5297  0E54  3033               	movlw	51
  5298  0E55  120A  158A  24EF  120A  158A  	fcall	_clcd_write
  5299  0E5A                     l1735:	
  5300                           
  5301                           ;clcd.c: 32:     _delay((unsigned long)((1)*(20000000/4000000.0)));
  5302  0E5A  2E5B               	nop2	;2 cycle nop
  5303  0E5B  2E5C               	nop2	;2 cycle nop
  5304  0E5C  0000               	nop
  5305  0E5D                     l1737:	
  5306                           
  5307                           ;clcd.c: 34:     clcd_write(0x02, 0);
  5308  0E5D  01F3               	clrf	clcd_write@mode
  5309  0E5E  3002               	movlw	2
  5310  0E5F  120A  158A  24EF  120A  158A  	fcall	_clcd_write
  5311  0E64                     l1739:	
  5312                           
  5313                           ;clcd.c: 35:     _delay((unsigned long)((100)*(20000000/4000000.0)));
  5314  0E64  30A6               	movlw	166
  5315  0E65  00F7               	movwf	??_init_display_controller
  5316  0E66                     u2847:	
  5317  0E66  0BF7               	decfsz	??_init_display_controller,f
  5318  0E67  2E66               	goto	u2847
  5319  0E68  0000               	nop
  5320                           
  5321                           ;clcd.c: 36:     clcd_write(0x28, 0);
  5322  0E69  01F3               	clrf	clcd_write@mode
  5323  0E6A  3028               	movlw	40
  5324  0E6B  120A  158A  24EF  120A  158A  	fcall	_clcd_write
  5325  0E70                     l1741:	
  5326                           
  5327                           ;clcd.c: 37:     _delay((unsigned long)((100)*(20000000/4000000.0)));
  5328  0E70  30A6               	movlw	166
  5329  0E71  00F7               	movwf	??_init_display_controller
  5330  0E72                     u2857:	
  5331  0E72  0BF7               	decfsz	??_init_display_controller,f
  5332  0E73  2E72               	goto	u2857
  5333  0E74  0000               	nop
  5334  0E75                     l1743:	
  5335                           
  5336                           ;clcd.c: 38:     clcd_write(0x01, 0);
  5337  0E75  01F3               	clrf	clcd_write@mode
  5338  0E76  3001               	movlw	1
  5339  0E77  120A  158A  24EF  120A  158A  	fcall	_clcd_write
  5340                           
  5341                           ;clcd.c: 39:     _delay((unsigned long)((500)*(20000000/4000000.0)));
  5342  0E7C  3004               	movlw	4
  5343  0E7D  00F8               	movwf	??_init_display_controller+1
  5344  0E7E  303D               	movlw	61
  5345  0E7F  00F7               	movwf	??_init_display_controller
  5346  0E80                     u2867:	
  5347  0E80  0BF7               	decfsz	??_init_display_controller,f
  5348  0E81  2E80               	goto	u2867
  5349  0E82  0BF8               	decfsz	??_init_display_controller+1,f
  5350  0E83  2E80               	goto	u2867
  5351  0E84  2E85               	nop2
  5352  0E85                     l1745:	
  5353                           
  5354                           ;clcd.c: 40:     clcd_write(0x0C, 0);
  5355  0E85  01F3               	clrf	clcd_write@mode
  5356  0E86  300C               	movlw	12
  5357  0E87  120A  158A  24EF  120A  158A  	fcall	_clcd_write
  5358  0E8C                     l1747:	
  5359                           
  5360                           ;clcd.c: 41:     _delay((unsigned long)((100)*(20000000/4000000.0)));
  5361  0E8C  30A6               	movlw	166
  5362  0E8D  00F7               	movwf	??_init_display_controller
  5363  0E8E                     u2877:	
  5364  0E8E  0BF7               	decfsz	??_init_display_controller,f
  5365  0E8F  2E8E               	goto	u2877
  5366  0E90  0000               	nop
  5367  0E91                     l203:	
  5368  0E91  0008               	return
  5369  0E92                     __end_of_init_display_controller:	
  5370                           
  5371                           	psect	text20
  5372  0CEF                     __ptext20:	
  5373 ;; *************** function _clcd_write *****************
  5374 ;; Defined at:
  5375 ;;		line 4 in file "clcd.c"
  5376 ;; Parameters:    Size  Location     Type
  5377 ;;  byte            1    wreg     unsigned char 
  5378 ;;  mode            1    3[COMMON] unsigned char 
  5379 ;; Auto vars:     Size  Location     Type
  5380 ;;  byte            1    6[COMMON] unsigned char 
  5381 ;; Return value:  Size  Location     Type
  5382 ;;                  1    wreg      void 
  5383 ;; Registers used:
  5384 ;;		wreg, status,2, status,0
  5385 ;; Tracked objects:
  5386 ;;		On entry : 0/0
  5387 ;;		On exit  : 0/0
  5388 ;;		Unchanged: 0/0
  5389 ;; Data sizes:     COMMON   BANK0   BANK1   BANK3   BANK2
  5390 ;;      Params:         1       0       0       0       0
  5391 ;;      Locals:         1       0       0       0       0
  5392 ;;      Temps:          2       0       0       0       0
  5393 ;;      Totals:         4       0       0       0       0
  5394 ;;Total ram usage:        4 bytes
  5395 ;; Hardware stack levels used:    1
  5396 ;; Hardware stack levels required when called:    1
  5397 ;; This function calls:
  5398 ;;		Nothing
  5399 ;; This function is called by:
  5400 ;;		_clear_screen
  5401 ;;		_init_display_controller
  5402 ;;		_clcd_putch
  5403 ;;		_clcd_print
  5404 ;; This function uses a non-reentrant model
  5405 ;;
  5406                           
  5407                           
  5408                           ;psect for function _clcd_write
  5409  0CEF                     _clcd_write:	
  5410                           
  5411                           ;incstack = 0
  5412                           ; Regs used in _clcd_write: [wreg+status,2+status,0]
  5413                           ;clcd_write@byte stored from wreg
  5414  0CEF  00F6               	movwf	clcd_write@byte
  5415  0CF0                     l1693:	
  5416                           
  5417                           ;clcd.c: 4: void clcd_write(unsigned char byte, unsigned char mode);clcd.c: 5: {;clcd.c:
      +                           6:     RE2 = (__bit)mode;
  5418  0CF0  1873               	btfsc	clcd_write@mode,0
  5419  0CF1  2CF3               	goto	u1051
  5420  0CF2  2CF7               	goto	u1050
  5421  0CF3                     u1051:	
  5422  0CF3  1283               	bcf	3,5	;RP0=0, select bank0
  5423  0CF4  1303               	bcf	3,6	;RP1=0, select bank0
  5424  0CF5  1509               	bsf	9,2	;volatile
  5425  0CF6  2CFA               	goto	u1064
  5426  0CF7                     u1050:	
  5427  0CF7  1283               	bcf	3,5	;RP0=0, select bank0
  5428  0CF8  1303               	bcf	3,6	;RP1=0, select bank0
  5429  0CF9  1109               	bcf	9,2	;volatile
  5430  0CFA                     u1064:	
  5431  0CFA                     l1695:	
  5432                           
  5433                           ;clcd.c: 8:     PORTD = byte & 0xF0;
  5434  0CFA  0876               	movf	clcd_write@byte,w
  5435  0CFB  39F0               	andlw	240
  5436  0CFC  0088               	movwf	8	;volatile
  5437  0CFD                     l1697:	
  5438                           
  5439                           ;clcd.c: 9:     RE1 = 1;
  5440  0CFD  1489               	bsf	9,1	;volatile
  5441  0CFE                     l1699:	
  5442                           
  5443                           ;clcd.c: 10:     _delay((unsigned long)((100)*(20000000/4000000.0)));
  5444  0CFE  30A6               	movlw	166
  5445  0CFF  00F4               	movwf	??_clcd_write
  5446  0D00                     u2887:	
  5447  0D00  0BF4               	decfsz	??_clcd_write,f
  5448  0D01  2D00               	goto	u2887
  5449  0D02  0000               	nop
  5450  0D03                     l1701:	
  5451                           
  5452                           ;clcd.c: 11:     RE1 = 0;
  5453  0D03  1283               	bcf	3,5	;RP0=0, select bank0
  5454  0D04  1303               	bcf	3,6	;RP1=0, select bank0
  5455  0D05  1089               	bcf	9,1	;volatile
  5456  0D06                     l1703:	
  5457                           
  5458                           ;clcd.c: 13:     PORTD = (unsigned char)((byte & 0x0F) << 4);
  5459  0D06  0876               	movf	clcd_write@byte,w
  5460  0D07  390F               	andlw	15
  5461  0D08  00F4               	movwf	??_clcd_write
  5462  0D09  3003               	movlw	3
  5463  0D0A                     u1075:	
  5464  0D0A  1003               	clrc
  5465  0D0B  0DF4               	rlf	??_clcd_write,f
  5466  0D0C  3EFF               	addlw	-1
  5467  0D0D  1D03               	skipz
  5468  0D0E  2D0A               	goto	u1075
  5469  0D0F  1003               	clrc
  5470  0D10  0D74               	rlf	??_clcd_write,w
  5471  0D11  0088               	movwf	8	;volatile
  5472  0D12                     l1705:	
  5473                           
  5474                           ;clcd.c: 14:     RE1 = 1;
  5475  0D12  1489               	bsf	9,1	;volatile
  5476  0D13                     l1707:	
  5477                           
  5478                           ;clcd.c: 15:     _delay((unsigned long)((100)*(20000000/4000000.0)));
  5479  0D13  30A6               	movlw	166
  5480  0D14  00F4               	movwf	??_clcd_write
  5481  0D15                     u2897:	
  5482  0D15  0BF4               	decfsz	??_clcd_write,f
  5483  0D16  2D15               	goto	u2897
  5484  0D17  0000               	nop
  5485  0D18                     l1709:	
  5486                           
  5487                           ;clcd.c: 16:     RE1 = 0;
  5488  0D18  1283               	bcf	3,5	;RP0=0, select bank0
  5489  0D19  1303               	bcf	3,6	;RP1=0, select bank0
  5490  0D1A  1089               	bcf	9,1	;volatile
  5491  0D1B                     l1711:	
  5492                           
  5493                           ;clcd.c: 18:     _delay((unsigned long)((4100)*(20000000/4000000.0)));
  5494  0D1B  301B               	movlw	27
  5495  0D1C  00F5               	movwf	??_clcd_write+1
  5496  0D1D  309E               	movlw	158
  5497  0D1E  00F4               	movwf	??_clcd_write
  5498  0D1F                     u2907:	
  5499  0D1F  0BF4               	decfsz	??_clcd_write,f
  5500  0D20  2D1F               	goto	u2907
  5501  0D21  0BF5               	decfsz	??_clcd_write+1,f
  5502  0D22  2D1F               	goto	u2907
  5503  0D23  0000               	nop
  5504  0D24                     l200:	
  5505  0D24  0008               	return
  5506  0D25                     __end_of_clcd_write:	
  5507                           
  5508                           	psect	text21
  5509  0D25                     __ptext21:	
  5510 ;; *************** function _isr *****************
  5511 ;; Defined at:
  5512 ;;		line 5 in file "isr.c"
  5513 ;; Parameters:    Size  Location     Type
  5514 ;;		None
  5515 ;; Auto vars:     Size  Location     Type
  5516 ;;		None
  5517 ;; Return value:  Size  Location     Type
  5518 ;;                  1    wreg      void 
  5519 ;; Registers used:
  5520 ;;		wreg, status,2, status,0
  5521 ;; Tracked objects:
  5522 ;;		On entry : 0/0
  5523 ;;		On exit  : 0/0
  5524 ;;		Unchanged: 0/0
  5525 ;; Data sizes:     COMMON   BANK0   BANK1   BANK3   BANK2
  5526 ;;      Params:         0       0       0       0       0
  5527 ;;      Locals:         0       0       0       0       0
  5528 ;;      Temps:          3       0       0       0       0
  5529 ;;      Totals:         3       0       0       0       0
  5530 ;;Total ram usage:        3 bytes
  5531 ;; Hardware stack levels used:    1
  5532 ;; This function calls:
  5533 ;;		Nothing
  5534 ;; This function is called by:
  5535 ;;		Interrupt level 1
  5536 ;; This function uses a non-reentrant model
  5537 ;;
  5538                           
  5539                           
  5540                           ;psect for function _isr
  5541  0D25                     _isr:	
  5542  0D25                     i1l2425:	
  5543                           
  5544                           ;isr.c: 7:     static unsigned int count = 0;;isr.c: 9:     if (TMR2IF == 1)
  5545  0D25  1283               	bcf	3,5	;RP0=0, select bank0
  5546  0D26  1303               	bcf	3,6	;RP1=0, select bank0
  5547  0D27  1C8C               	btfss	12,1	;volatile
  5548  0D28  2D2A               	goto	u204_21
  5549  0D29  2D2B               	goto	u204_20
  5550  0D2A                     u204_21:	
  5551  0D2A  2D55               	goto	i1l311
  5552  0D2B                     u204_20:	
  5553  0D2B                     i1l2427:	
  5554                           
  5555                           ;isr.c: 10:     {;isr.c: 11:         if (++count == 1250)
  5556  0D2B  3001               	movlw	1
  5557  0D2C  07B8               	addwf	isr@count,f
  5558  0D2D  1803               	skipnc
  5559  0D2E  0AB9               	incf	isr@count+1,f
  5560  0D2F  3000               	movlw	0
  5561  0D30  07B9               	addwf	isr@count+1,f
  5562  0D31  30E2               	movlw	226
  5563  0D32  0638               	xorwf	isr@count,w
  5564  0D33  3004               	movlw	4
  5565  0D34  1903               	skipnz
  5566  0D35  0639               	xorwf	isr@count+1,w
  5567  0D36  1D03               	btfss	3,2
  5568  0D37  2D39               	goto	u205_21
  5569  0D38  2D3A               	goto	u205_20
  5570  0D39                     u205_21:	
  5571  0D39  2D54               	goto	i1l2443
  5572  0D3A                     u205_20:	
  5573  0D3A                     i1l2429:	
  5574                           
  5575                           ;isr.c: 12:         {;isr.c: 13:             count = 0;
  5576  0D3A  01B8               	clrf	isr@count
  5577  0D3B  01B9               	clrf	isr@count+1
  5578  0D3C                     i1l2431:	
  5579                           
  5580                           ;isr.c: 14:             if(sec > 0)
  5581  0D3C  0845               	movf	_sec,w
  5582  0D3D  1903               	btfsc	3,2
  5583  0D3E  2D40               	goto	u206_21
  5584  0D3F  2D41               	goto	u206_20
  5585  0D40                     u206_21:	
  5586  0D40  2D44               	goto	i1l2435
  5587  0D41                     u206_20:	
  5588  0D41                     i1l2433:	
  5589                           
  5590                           ;isr.c: 15:             {;isr.c: 16:                 sec--;
  5591  0D41  3001               	movlw	1
  5592  0D42  02C5               	subwf	_sec,f
  5593                           
  5594                           ;isr.c: 17:             }
  5595  0D43  2D54               	goto	i1l2443
  5596  0D44                     i1l2435:	
  5597  0D44  0845               	movf	_sec,w
  5598  0D45  1D03               	btfss	3,2
  5599  0D46  2D48               	goto	u207_21
  5600  0D47  2D49               	goto	u207_20
  5601  0D48                     u207_21:	
  5602  0D48  2D54               	goto	i1l2443
  5603  0D49                     u207_20:	
  5604  0D49                     i1l2437:	
  5605  0D49  0879               	movf	_min,w
  5606  0D4A  1903               	btfsc	3,2
  5607  0D4B  2D4D               	goto	u208_21
  5608  0D4C  2D4E               	goto	u208_20
  5609  0D4D                     u208_21:	
  5610  0D4D  2D54               	goto	i1l2443
  5611  0D4E                     u208_20:	
  5612  0D4E                     i1l2439:	
  5613                           
  5614                           ;isr.c: 19:             {;isr.c: 20:                 min--;
  5615  0D4E  3001               	movlw	1
  5616  0D4F  02F9               	subwf	_min,f
  5617  0D50                     i1l2441:	
  5618                           
  5619                           ;isr.c: 21:                 sec = 59;
  5620  0D50  303B               	movlw	59
  5621  0D51  00F0               	movwf	??_isr
  5622  0D52  0870               	movf	??_isr,w
  5623  0D53  00C5               	movwf	_sec
  5624  0D54                     i1l2443:	
  5625                           
  5626                           ;isr.c: 26:         TMR2IF = 0;
  5627  0D54  108C               	bcf	12,1	;volatile
  5628  0D55                     i1l311:	
  5629  0D55  0872               	movf	??_isr+2,w
  5630  0D56  008A               	movwf	10
  5631  0D57  0E71               	swapf	(??_isr+1)^(0+4294967168),w
  5632  0D58  0083               	movwf	3
  5633  0D59  0EFE               	swapf	btemp,f
  5634  0D5A  0E7E               	swapf	btemp,w
  5635  0D5B  0009               	retfie
  5636  0D5C                     __end_of_isr:	
  5637  007E                     btemp	set	126	;btemp
  5638  007E                     wtemp0	set	126
  5639                           
  5640                           	psect	intentry
  5641  0004                     __pintentry:	
  5642                           ;incstack = 0
  5643                           ; Regs used in _isr: [wreg+status,2+status,0]
  5644                           
  5645  0004                     interrupt_function:	
  5646  007E                     saved_w	set	btemp
  5647  0004  00FE               	movwf	btemp
  5648  0005  0E03               	swapf	3,w
  5649  0006  00F1               	movwf	??_isr+1
  5650  0007  080A               	movf	10,w
  5651  0008  00F2               	movwf	??_isr+2
  5652  0009  120A  158A  2D25   	ljmp	_isr


Data Sizes:
    Strings     312
    Constant    0
    Data        3
    BSS         15
    Persistent  0
    Stack       0

Auto Spaces:
    Space          Size  Autos    Used
    COMMON           14      9      11
    BANK0            80     24      40
    BANK1            80      0       0
    BANK3            96      0       0
    BANK2            96      0       0

Pointer List with Targets:

    clcd_print@str	PTR const unsigned char  size(2) Largest target is 18
		 -> STR_28(CODE[3]), STR_27(CODE[3]), STR_26(CODE[17]), STR_25(CODE[7]), 
		 -> STR_24(CODE[17]), STR_23(CODE[4]), STR_22(CODE[17]), STR_21(CODE[13]), 
		 -> STR_20(CODE[16]), STR_19(CODE[18]), STR_18(CODE[17]), STR_17(CODE[17]), 
		 -> STR_16(CODE[8]), STR_15(CODE[15]), STR_14(CODE[8]), STR_13(CODE[13]), 
		 -> STR_12(CODE[8]), STR_11(CODE[8]), STR_10(CODE[17]), STR_9(CODE[16]), 
		 -> STR_8(CODE[11]), STR_7(CODE[8]), STR_6(CODE[9]), STR_5(CODE[16]), 
		 -> STR_4(CODE[8]), STR_3(CODE[13]), STR_2(CODE[13]), STR_1(CODE[15]), 


Critical Paths under _main in COMMON

    _main->_clear_screen
    _time_display_screen->___awmod
    _time_display_screen->_clear_screen
    _door_status->_clear_screen
    _set_time->___awmod
    _set_time->_clear_screen
    _set_temp->___awmod
    _set_temp->_clear_screen
    _clear_screen->_clcd_write
    ___awmod->___awdiv
    _read_matrix_keypad->_scan_keypad
    _clcd_putch->___awmod
    _clcd_print->_clcd_write
    _init_clcd->_init_display_controller
    _init_display_controller->_clcd_write

Critical Paths under _isr in COMMON

    None.

Critical Paths under _main in BANK0

    _main->_set_temp
    _main->_set_time
    _time_display_screen->_clcd_putch
    _door_status->_clcd_print
    _set_time->_clcd_putch
    _set_temp->_clcd_putch
    ___awmod->___awdiv
    _power_on_screen->_clcd_putch
    _clcd_putch->___awmod
    _menu_display_screen->_clcd_print

Critical Paths under _isr in BANK0

    None.

Critical Paths under _main in BANK1

    None.

Critical Paths under _isr in BANK1

    None.

Critical Paths under _main in BANK3

    None.

Critical Paths under _isr in BANK3

    None.

Critical Paths under _main in BANK2

    None.

Critical Paths under _isr in BANK2

    None.

Call Graph Tables:

 ---------------------------------------------------------------------------------
 (Depth) Function   	        Calls       Base Space   Used Autos Params    Refs
 ---------------------------------------------------------------------------------
 (0) _main                                                 6     6      0   78548
                                             18 BANK0      6     6      0
                         _clcd_print
                       _clear_screen
                        _door_status
                        _init_config
                _menu_display_screen
                    _power_on_screen
                 _read_matrix_keypad
                           _set_temp
                           _set_time
                _time_display_screen
 ---------------------------------------------------------------------------------
 (1) _time_display_screen                                  3     3      0   20115
                                             12 BANK0      3     3      0
                            ___awdiv
                            ___awmod
                         _clcd_print
                         _clcd_putch
                       _clear_screen
                        _door_status
 ---------------------------------------------------------------------------------
 (2) _door_status                                          1     1      0    7092
                                              3 BANK0      1     1      0
                         _clcd_print
                       _clear_screen
 ---------------------------------------------------------------------------------
 (1) _set_time                                             6     4      2   13864
                                             12 BANK0      6     4      2
                            ___awdiv
                            ___awmod
                             ___bmul
                         _clcd_print
                         _clcd_putch
                       _clear_screen
 ---------------------------------------------------------------------------------
 (1) _set_temp                                             6     4      2   13653
                                             12 BANK0      6     4      2
                            ___awdiv
                            ___awmod
                             ___bmul
                         _clcd_print
                         _clcd_putch
                       _clear_screen
 ---------------------------------------------------------------------------------
 (3) _clear_screen                                         2     2      0     978
                                              7 COMMON     2     2      0
                         _clcd_write
 ---------------------------------------------------------------------------------
 (2) ___bmul                                               4     3      1     320
                                              3 COMMON     4     3      1
 ---------------------------------------------------------------------------------
 (2) ___awmod                                              7     3      4    1873
                                              8 COMMON     1     1      0
                                              4 BANK0      6     2      4
                            ___awdiv (ARG)
 ---------------------------------------------------------------------------------
 (2) ___awdiv                                              9     5      4    1516
                                              3 COMMON     5     1      4
                                              0 BANK0      4     4      0
 ---------------------------------------------------------------------------------
 (1) _read_matrix_keypad                                   3     3      0     272
                                              5 COMMON     3     3      0
                        _scan_keypad
 ---------------------------------------------------------------------------------
 (2) _scan_keypad                                          2     2      0     161
                                              3 COMMON     2     2      0
 ---------------------------------------------------------------------------------
 (1) _power_on_screen                                      4     4      0    8854
                                             12 BANK0      4     4      0
                         _clcd_print
                         _clcd_putch
 ---------------------------------------------------------------------------------
 (2) _clcd_putch                                           2     1      1    2542
                                             10 BANK0      2     1      1
                            ___awdiv (ARG)
                            ___awmod (ARG)
                         _clcd_write
 ---------------------------------------------------------------------------------
 (1) _menu_display_screen                                  1     1      0    6114
                                              7 COMMON     1     1      0
                         _clcd_print
 ---------------------------------------------------------------------------------
 (3) _clcd_print                                           3     0      3    6114
                                              0 BANK0      3     0      3
                         _clcd_write
 ---------------------------------------------------------------------------------
 (1) _init_config                                          0     0      0     978
                          _init_clcd
                 _init_matrix_keypad
                        _init_timer2
 ---------------------------------------------------------------------------------
 (2) _init_timer2                                          0     0      0       0
 ---------------------------------------------------------------------------------
 (2) _init_matrix_keypad                                   0     0      0       0
 ---------------------------------------------------------------------------------
 (2) _init_clcd                                            0     0      0     978
            _init_display_controller
 ---------------------------------------------------------------------------------
 (3) _init_display_controller                              2     2      0     978
                                              7 COMMON     2     2      0
                         _clcd_write
 ---------------------------------------------------------------------------------
 (4) _clcd_write                                           4     3      1     978
                                              3 COMMON     4     3      1
 ---------------------------------------------------------------------------------
 Estimated maximum stack depth 4
 ---------------------------------------------------------------------------------
 (Depth) Function   	        Calls       Base Space   Used Autos Params    Refs
 ---------------------------------------------------------------------------------
 (5) _isr                                                  3     3      0       0
                                              0 COMMON     3     3      0
 ---------------------------------------------------------------------------------
 Estimated maximum stack depth 5
 ---------------------------------------------------------------------------------

 Call Graph Graphs:

 _main (ROOT)
   _clcd_print
     _clcd_write
   _clear_screen
     _clcd_write
   _door_status
     _clcd_print
       _clcd_write
     _clear_screen
       _clcd_write
   _init_config
     _init_clcd
       _init_display_controller
         _clcd_write
     _init_matrix_keypad
     _init_timer2
   _menu_display_screen
     _clcd_print
       _clcd_write
   _power_on_screen
     _clcd_print
       _clcd_write
     _clcd_putch
       ___awdiv (ARG)
       ___awmod (ARG)
         ___awdiv (ARG)
       _clcd_write (ARG)
   _read_matrix_keypad
     _scan_keypad
   _set_temp
     ___awdiv
     ___awmod
       ___awdiv (ARG)
     ___bmul
     _clcd_print
       _clcd_write
     _clcd_putch
       ___awdiv (ARG)
       ___awmod (ARG)
         ___awdiv (ARG)
       _clcd_write (ARG)
     _clear_screen
       _clcd_write
   _set_time
     ___awdiv
     ___awmod
       ___awdiv (ARG)
     ___bmul
     _clcd_print
       _clcd_write
     _clcd_putch
       ___awdiv (ARG)
       ___awmod (ARG)
         ___awdiv (ARG)
       _clcd_write (ARG)
     _clear_screen
       _clcd_write
   _time_display_screen
     ___awdiv
     ___awmod
       ___awdiv (ARG)
     _clcd_print
       _clcd_write
     _clcd_putch
       ___awdiv (ARG)
       ___awmod (ARG)
         ___awdiv (ARG)
       _clcd_write (ARG)
     _clear_screen
       _clcd_write
     _door_status
       _clcd_print
         _clcd_write
       _clear_screen
         _clcd_write

 _isr (ROOT)

 Address spaces:
Name               Size   Autos  Total    Cost      Usage
BANK3               60      0       0       9        0.0%
BITBANK3            60      0       0       8        0.0%
SFR3                 0      0       0       4        0.0%
BITSFR3              0      0       0       4        0.0%
BANK2               60      0       0      11        0.0%
BITBANK2            60      0       0      10        0.0%
SFR2                 0      0       0       5        0.0%
BITSFR2              0      0       0       5        0.0%
BANK1               50      0       0       7        0.0%
BITBANK1            50      0       0       6        0.0%
SFR1                 0      0       0       2        0.0%
BITSFR1              0      0       0       2        0.0%
BANK0               50     18      28       5       50.0%
BITBANK0            50      0       0       4        0.0%
SFR0                 0      0       0       1        0.0%
BITSFR0              0      0       0       1        0.0%
COMMON               E      9       B       1       78.6%
BITCOMMON            E      0       0       0        0.0%
CODE                 0      0       0       0        0.0%
DATA                 0      0      33      12        0.0%
ABS                  0      0      33       3        0.0%
NULL                 0      0       0       0        0.0%
STACK                0      0       0       2        0.0%
EEDATA             100      0       0       0        0.0%


Microchip Technology PIC Macro Assembler V2.10 build 88905656 
Symbol Table                                                                                   Tue Oct 03 13:44:27 2023

                               pc 0002                    ___bmul@product 0075                    clcd_print@addr 0022  
__size_of_init_display_controller 0063                                l59 0C96                                l68 049B  
                              l98 0549                                l99 054C                      ___awdiv@sign 0021  
                              fsr 0004                _init_matrix_keypad 0C2D                               l200 0D24  
                             l112 0FFF                               l105 0D88                               l122 05F8  
                             l203 0E91                               l115 0C4D                               l107 0D8E  
                             l108 0D96                               l125 0DD3                               l206 0C2C  
                             l215 0CEE                               l209 0C62                               l154 0281  
                             l138 00C7                               l251 077F                               l243 0750  
                             l260 07C2                               l252 0787                               l244 0758  
                             l261 07BC                               l253 0793                               l245 07F2  
                             l238 0C3C                               l254 078D                               l246 0764  
                             l247 075E                               l423 0C77                               l183 040C  
                             l265 07DD                               l266 07E5                               l258 07AE  
                             l259 07B6                               l268 07EB                               l276 0CBB  
                             l293 07FF                               l550 0EFA                               l563 0E2E  
                             _GIE 005F                               _RB0 0030                               _RB1 0031  
                             _RB2 0032                               _RC1 0039                               _RB3 0033  
                             _RC2 003A                               _RD0 0040                               _RD1 0041  
                             _RD2 0042                               _RE1 0049                               _RD3 0043  
                             _RE2 004A                               _PR2 0092                               _min 0079  
                             _sec 0045                               _isr 0D25                    clcd_putch@addr 002A  
                             fsr0 0004                    clcd_putch@data 002B                               indf 0000  
                    ___awmod@sign 0029               ?_init_matrix_keypad 0070                              l2001 0C8F  
                            l2003 0C92                              l2011 0CA5                              l2005 0C95  
                            l2021 0CB1                              l2031 0CB8                              l2007 0C98  
                            l2033 0CBA                              l2017 0CA7                              l2009 0CA0  
                            l2019 0CAC                              l2029 0CB3                              l1701 0D03  
                            l2501 0CDE                              l1711 0D1B                              l1703 0D06  
                            l2511 0D79                              l2503 0D5C                              l1705 0D12  
                            l2521 0DE0                              l1713 0C3D                              l2601 02CA  
                            l2513 0D91                              l2505 0D62                              l1707 0D13  
                            l1731 0E4E                              l1803 075C                              l2531 0DF4  
                            l2523 0DE2                              l2515 0DD4                              l1715 0C44  
                            l2611 02EF                              l2603 02D0                              l2507 0D65  
                            l1709 0D18                              l1741 0E70                              l1733 0E53  
                            l1725 0E2F                              l1821 0772                              l1813 0768  
                            l2541 0E13                              l2533 0DFB                              l2525 0DE6  
                            l2517 0DD7                              l1901 0C6D                              l2701 00AC  
                            l2613 02F1                              l2605 02D5                              l2621 0310  
                            l2509 0D6A                              l1743 0E75                              l1735 0E5A  
                            l1727 0E37                              l1751 0C25                              l1823 0785  
                            l1911 0E95                              l2543 0E1A                              l2535 0DFF  
                            l2527 0DEB                              l2519 0DDB                              l1903 0C6F  
                            l2711 00D1                              l2703 00B0                              l2631 0324  
                            l2623 0316                              l2615 02F7                              l2607 02D9  
                            l1745 0E85                              l1737 0E5D                              l1729 0E3E  
                            l1753 0C26                              l1761 0C36                              l2561 058C  
                            l2553 057E                              l1809 0762                              l1921 0EA9  
                            l1913 0E99                              l2537 0E03                              l2529 0DF1  
                            l2545 0E20                              l1905 0C76                              l2721 00F6  
                            l2713 00D7                              l2705 00B6                              l2641 033B  
                            l2625 031B                              l2633 0329                              l2617 02FD  
                            l2609 02DF                              l2801 0FC0                              l1747 0E8C  
                            l1739 0E64                              l1755 0C27                              l1763 0C39  
                            l1771 07F7                              l2563 059A                              l1835 0791  
                            l1819 076C                              l1931 0EBF                              l1923 0EAD  
                            l1915 0E9E                              l2547 0E25                              l2539 0E0D  
                            l2731 011B                              l2723 0104                              l2715 00DD  
                            l2707 00C8                              l2651 0356                              l2643 033C  
                            l2635 032F                              l2627 031E                              l2619 030D  
                            l2811 0FE3                              l2803 0FC7                              l1693 0CF0  
                            l1749 0C22                              l1765 0C3A                              l1757 0C2D  
                            l1773 07FB                              l2581 05E4                              l2565 05A0  
                            l1861 07C0                              l1845 079B                              l1829 078B  
                            l1941 0EDF                              l1933 0EC3                              l1925 0EAF  
                            l1917 0EA0                              l1909 0E92                              l2549 0E2A  
                            l2741 0142                              l2733 0120                              l2725 0109  
                            l2717 00E2                              l2709 00CE                              l2653 0371  
                            l2661 03D8                              l2637 0330                              l2629 0323  
                            l2645 033D                              l2821 0FFB                              l2813 0FF1  
                            l2805 0FCC                              l2901 04E9                              l1695 0CFA  
                            l1767 0C3B                              l1759 0C35                              l1775 07FC  
                            l2495 0CBC                              l2583 05EA                              l2575 05C5  
                            l2567 05A6                              l2559 0581                              l1871 07CA  
                            l1855 07BA                              l1847 07A1                              l1839 0797  
                            l1791 0738                              l1943 0EE6                              l1935 0EC7  
                            l1927 0EB5                              l1919 0EA4                              l2751 01BD  
                            l2743 0147                              l2735 012F                              l2719 00E7  
                            l2727 0110                              l2671 03FC                              l2655 0390  
                            l2647 034A                              l2639 0335                              l2591 0293  
                            l2815 0FF6                              l2807 0FD1                              l2911 0511  
                            l2903 04EF                              l2831 0426                              l2823 040D  
                            l1697 0CFD                              l1769 07F3                              l2497 0CC6  
                            l2585 0D97                              l2577 05D0                              l2569 05C2  
                            l1881 07E9                              l1873 07D0                              l1865 07C6  
                            l1849 07B4                              l1793 073E                              l1937 0ED8  
                            l1929 0EB8                              l1945 0EEC                              l2761 01E7  
                            l2753 01C2                              l2745 01AF                              l2737 013E  
                            l2729 0116                              l2681 0043                              l2665 03E0  
                            l2657 039C                              l2649 034C                              l2593 0297  
                            l2817 0FF9                              l2809 0FE0                              l2913 0516  
                            l2921 0533                              l2905 04F5                              l2841 0450  
                            l2833 042F                              l2825 0412                              l1699 0CFE  
                            l2499 0CD6                              l2579 05DE                              l1891 07F1  
                            l1875 07E3                              l1795 0742                              l1947 0EF1  
                            l1939 0EDE                              l2771 01FB                              l2763 01EA  
                            l2755 01D1                              l2747 01B6                              l2739 0141  
                            l2691 007E                              l2683 0047                              l2667 03EE  
                            l2659 03B9                              l2595 02A4                              l2587 0285  
                            l2819 0FFA                              l2923 0538                              l2915 0520  
                            l2907 04FB                              l2851 0473                              l2931 0553  
                            l2843 045E                              l2835 0434                              l2827 041D  
                            l1789 0C51                              l1797 0756                              l1949 0EF6  
                            l2781 0274                              l2773 0205                              l2765 01EB  
                            l2757 01D4                              l2749 01BB                              l2693 008A  
                            l2685 0054                              l2677 0037                              l2597 02B3  
                            l2589 028C                              l2925 0543                              l2917 0527  
                            l2909 0506                              l2933 0574                              l2861 048C  
                            l2853 0479                              l2837 043C                              l2845 0464  
                            l2829 0421                              l1991 0C78                              l1887 07EF  
                            l1895 0C64                              l2775 0220                              l2759 01E2  
                            l2767 01EC                              l2687 0060                              l2679 003E  
                            l2695 0099                              l2599 02C2                              l2791 0F57  
                            l2783 0EFB                              l2927 054E                              l2919 052C  
                            l2863 048D                              l2847 046A                              l2839 0441  
                            l2871 049C                              l1993 0C82                              l1897 0C65  
                            l2777 024E                              l2769 01F9                              l2697 00A1  
                            l2689 006F                              l2793 0F74                              l2785 0F0F  
                            l2881 04BE                              l2873 04A3                              l2865 048E  
                            l2857 0482                              l1995 0C85                              l1899 0C69  
                            l2779 026D                              l2699 00A7                              l2795 0F93  
                            l2787 0F2C                              l2883 04C4                              l2875 04A9  
                            l2891 04D4                              l2867 048F                              l2859 0488  
                            l1997 0C8D                              l2797 0FA2                              l2789 0F4B  
                            l2893 04DB                              l2885 04C9                              l2877 04AE  
                            l2869 0494                              l1999 0C8E                              l2799 0FB1  
                            l2991 055A                              l2895 04E1                              l2887 04CF  
                            l2879 04B4                              l2993 0404                              l2899 04E4  
                            ?_isr 0070                              STR_1 06A6                              STR_2 06CF  
                            STR_3 06C2                              STR_4 06FD                              STR_5 0687  
                            STR_6 06F4                              STR_7 071D                              STR_8 06E9  
                            STR_9 0667                              u1110 0750                              u1111 074F  
                            u1200 07B4                              u1120 0756                              u1201 07B3  
                            u1121 0755                              u1050 0CF7                              u1210 07BA  
                            u1130 075C                              u1051 0CF3                              u1211 07B9  
                            u1131 075B                              u1220 07C0                              u1140 0762  
                            u1300 0EA4                              u2100 0D62                              u1221 07BF  
                            u1141 0761                              u1301 0EA3                              u2101 0D61  
                            u1230 07DD                              u1150 077F                              u1310 0EB5  
                            u2110 0D8E                              u1231 07DC                              u1151 077E  
                            u1311 0EB4                              u2111 0D8D                              u1064 0CFA  
                            u1240 07E3                              u1160 0785                              u2200 0E25  
                            u2120 0DDB                              u1241 07E2                              u1161 0784  
                            u2201 0E24                              u2121 0DDA                              u2210 05A6  
                            u1250 07E9                              u1170 078B                              u1330 0EC7  
                            u2130 0DE6                              u1075 0D0A                              u2211 05A5  
                            u1251 07E8                              u1235 07D9                              u1171 078A  
                            u1155 077B                              u1331 0EC6                              u2131 0DE5  
                            u2220 05EA                              u1260 07EF                              u1180 0791  
                            u1500 0CB1                              u2140 0DF1                              u2300 0316  
                            u2221 05E9                              u1261 07EE                              u1181 0790  
                            u1501 0CB0                              u1325 0EB9                              u2141 0DF0  
                            u2301 0315                              u1190 07AE                              u1510 0CB8  
                            u1350 0ED8                              u1270 0C69                              u2310 031B  
                            u2230 028C                              u1191 07AD                              u1511 0CB7  
                            u1351 0ED7                              u1271 0C68                              u2311 031A  
                            u2231 028B                              u2160 0E03                              u1280 0C76  
                            u2400 00A7                              u2320 0323                              u2240 02CA  
                            u1345 0EC8                              u2161 0E02                              u1281 0C75  
                            u2401 00A6                              u2321 0322                              u2241 02C9  
                            u2090 0CEE                              u1370 0EEC                              u1290 0E99  
                            u2170 0E0D                              u2410 00AC                              u2330 032F  
                            u2250 02D0                              u2091 0CED                              u1195 07AA  
                            u1371 0EEB                              u1355 0ED4                              u1291 0E98  
                            u2171 0E0C                              u2155 0DF5                              u2411 00AB  
                            u2331 032E                              u2251 02CF                              u1380 0EF1  
                            u2500 01BB                              u2420 00B6                              u2340 034A  
                            u2260 02D5                              u1381 0EF0                              u1365 0EE0  
                            u2501 01BA                              u2421 00B5                              u2341 0349  
                            u2261 02D4                              u2190 0E20                              u2510 01F9  
                            u2430 00CE                              u2350 0352                              u2270 02DF  
                    ?_door_status 0070                              u2191 0E1F                              u2175 0E09  
                            u2511 01F8                              u2431 00CD                              u2351 0350  
                            u2271 02DE                              u1480 0CA5                              u2520 0201  
                            u2440 00D7                              u2360 0353                              u2280 02F7  
                            u2600 046A                              u1481 0CA4                              u2185 0E14  
                            u2521 01FF                              u2441 00D6                              u2281 02F6  
                            u2601 0469                              u1490 0CAC                              u2530 0202  
                            u2450 00DD                              u2370 03DF                              u2290 02FD  
                            u2610 0479                              u1491 0CAB                              u2451 00DC  
                            u2371 03DE                              u2291 02FC                              u2611 0478  
                            u2540 0274                              u2460 00E2                              u2380 003E  
                            u2700 0516                              u2620 0488                              u2541 0273  
                            u2461 00E1                              u2381 003D                              u2701 0515  
                            u2621 0487                              u2470 0116                              u2390 00A1  
                            u2550 0FC7                              u2710 0527                              u2630 04A3  
                            u2471 0115                              u2391 00A0                              u2551 0FC6  
                            u2711 0526                              u2631 04A2                              u2480 011B  
                            u2560 0FCC                              u2720 0538                              u2640 04A9  
                            u2481 011A                              u2561 0FCB                              u2721 0537  
                            u2641 04A8                              u2490 01B6                              u2650 04B4  
                            u2570 0421                              u2491 01B5                              u2651 04B3  
                            u2571 0420                              u2660 04C4                              u2580 042F  
                            u2661 04C3                              u2581 042E                              u2670 04CF  
                            u2590 0434                              u2807 05F2                              u2671 04CE  
                            u2591 0433                              u2680 04DB                              u2817 0E33  
                            u2681 04DA                              u2737 0458                              u2690 04E1  
                            u2907 0D1F                              u2827 0E42                              u2747 0FEB  
                            u2691 04E0                              _PEIE 005E                              u2837 0E50  
                            u2757 00FE                              u2847 0E66                              u2767 01DC  
                            u2857 0E72                              u2777 0C48                              u2867 0E80  
                            u2787 0594                              u2877 0E8E                              u2797 05D8  
                            u2887 0D00                              u2897 0D15                              _flag 0044  
                            _main 040D                              btemp 007E               _menu_display_screen 0D97  
                            start 000C                 ___bmul@multiplier 0076              ??_init_matrix_keypad 0073  
                  clcd_write@byte 0076                    clcd_write@mode 0073           __end_of_power_on_screen 05F9  
    __size_of_time_display_screen 0105                             ??_isr 0070                             ?_main 0070  
                 __end_of___awdiv 0EFB                             STR_10 0634                             STR_11 0715  
                           STR_12 070D                             STR_20 0677                             STR_13 06DC  
                           STR_21 06B5                             STR_14 0725                             STR_22 0612  
                           STR_23 0734                             STR_15 0697                             STR_16 0705  
                           STR_24 0645                             STR_25 072D                             STR_17 0623  
                   __CFG_WDTE$OFF 0000                             STR_26 0656                             STR_18 0656  
                           STR_27 0735                             STR_19 0600                             STR_28 0735  
                 __end_of___awmod 0E2F                   ___awdiv@divisor 0073                             i1l311 0D55  
                    ?_init_config 0070              ?_menu_display_screen 0070                   ___awdiv@counter 0020  
                           _PORTD 0008                             _TRISB 0086                             _TRISD 0088  
                    ?_init_timer2 0070              __end_of_clear_screen 0C4E                             _nRBPU 040F  
              _read_matrix_keypad 0C97                             pclath 000A               ?_read_matrix_keypad 0070  
                           status 0003                             wtemp0 007E                      ?_scan_keypad 0070  
                 __initialization 000F                      __end_of_main 057E              ??_read_matrix_keypad 0075  
                          ??_main 0032             ??_menu_display_screen 0077                  ___awdiv@dividend 0075  
                          i1l2431 0D3C                            i1l2441 0D50                            i1l2433 0D41  
                          i1l2425 0D25                            i1l2435 0D44                            i1l2443 0D54  
                          i1l2427 0D2B                            i1l2437 0D49                            i1l2429 0D3A  
                          i1l2439 0D4E                            u204_20 0D2B                            u204_21 0D2A  
                          u205_20 0D3A                            u205_21 0D39                            u206_20 0D41  
                          u206_21 0D40                            u207_20 0D49                            u207_21 0D48  
                          u208_20 0D4E                            u208_21 0D4D                            _TMR2IE 0461  
                          _TMR2IF 0061                            _TMR2ON 0092                            _TRISC1 0439  
                          _TRISB3 0433                            _TRISC2 043A                            _TRISE1 0449  
                          _TRISE2 044A                            ___bmul 0C63           _init_display_controller 0E2F  
                       ??___awdiv 0077                  ?_power_on_screen 0070                         ??___awmod 0078  
                ___awdiv@quotient 0022                   ___awmod@divisor 0024                   ___awmod@counter 0028  
                    __pdataCOMMON 007A                  __end_of_set_temp 0282                  __end_of_set_time 040D  
                          saved_w 007E           __end_of__initialization 0030              __size_of_door_status 003B  
             ___bmul@multiplicand 0073                    __pcstackCOMMON 0070                      __pidataBANK0 05F9  
           __size_of_clear_screen 0011              __size_of_init_config 001F              __size_of_init_timer2 000D  
             _time_display_screen 0EFB                        __pbssBANK0 0038                __size_of_init_clcd 000B  
       ??_init_display_controller 0077                        _clcd_print 0CBC                        _clcd_putch 0C4E  
                      _clcd_write 0CEF              __size_of_scan_keypad 00BB                        __pmaintext 040D  
                    _clear_screen 0C3D                           ?___bmul 0073              ?_time_display_screen 0070  
                      __pintentry 0004                           _T2CKPS0 0090                           _T2CKPS1 0091  
                      __stringtab 0800                         ?_set_temp 002C                         ?_set_time 002C  
     __size_of_init_matrix_keypad 0010             ??_time_display_screen 002C                   __size_of___bmul 0015  
                         ___awdiv 0E92                           ___awmod 0DD4                           __ptext1 0EFB  
                         __ptext2 0D5C                           __ptext3 0282                           __ptext4 0034  
                         __ptext5 0C3D                           __ptext6 0C63                           __ptext7 0DD4  
                         __ptext8 0E92                           __ptext9 0C97   __end_of_init_display_controller 0E92  
               __end_of_init_clcd 0C2D                      __size_of_isr 0037                  ___awmod@dividend 0026  
                  main@reset_flag 0035                           main@key 0037              end_of_initialization 0030  
                     set_temp@key 0031                       set_time@key 0031                    _operation_flag 0046  
                     ?_clcd_print 0020                       ?_clcd_putch 002A                       ?_clcd_write 0073  
                      ??_set_temp 002E                        ??_set_time 002E       __end_of_menu_display_screen 0DD4  
                    __pstringtext 0600       __size_of_read_matrix_keypad 0025                     clcd_print@str 0020  
              set_temp@reset_flag 002C                    __end_of___bmul 0C78                     __pidataCOMMON 05FB  
        __size_of_power_on_screen 007B               start_initialization 000F               __size_of_clcd_print 0033  
                    scan_keypad@i 0073               __size_of_clcd_putch 0015               __size_of_clcd_write 0036  
          read_matrix_keypad@mode 0076            read_matrix_keypad@once 007A                       __end_of_isr 0D5C  
                   ??_door_status 0023                          ??___bmul 0074                       __pdataBANK0 0046  
                   ??_init_config 0079                     ??_init_timer2 0073                       __pbssCOMMON 0079  
                       ___latbits 0002                     __pcstackBANK0 0020                     ??_scan_keypad 0073  
             __end_of_door_status 0D97                          ?___awdiv 0073                          ?___awmod 0024  
               __size_of_set_temp 024E                 __size_of_set_time 018B                         __pstrings 0800  
              set_time@reset_flag 002C                         _init_clcd 0C22               __end_of_init_config 0C97  
               ??_power_on_screen 002C               __end_of_init_timer2 0800          ?_init_display_controller 0070  
               interrupt_function 0004       __end_of_time_display_screen 1000                      ??_clcd_print 0077  
                    ??_clcd_putch 0079        __end_of_init_matrix_keypad 0C3D                      ??_clcd_write 0074  
               set_temp@key_count 0043               __end_of_scan_keypad 07F3                       __stringbase 0812  
              __end_of_clcd_print 0CEF                __end_of_clcd_putch 0C63                __end_of_clcd_write 0D25  
                      ?_init_clcd 0070                       _door_status 0D5C             read_matrix_keypad@key 0077  
               set_time@blink_pos 003F                     set_temp@blink 0042                     set_time@blink 003E  
      __end_of_read_matrix_keypad 0CBC                  __size_of___awdiv 0069                  __size_of___awmod 005B  
              __end_of__stringtab 0812                 set_time@key_count 0040                       _init_config 0C78  
    __size_of_menu_display_screen 003D                       _init_timer2 07F3                          __ptext10 0738  
                        __ptext11 057E                          __ptext20 0CEF                          __ptext12 0C4E  
                        __ptext21 0D25                          __ptext13 0D97                          __ptext14 0CBC  
                        __ptext15 0C78                          __ptext16 07F3                          __ptext17 0C2D  
                        __ptext18 0C22                          __ptext19 0E2F                     __size_of_main 0171  
                     _scan_keypad 0738                     ?_clear_screen 0070                          _set_temp 0034  
                        _set_time 0282                          isr@count 0038                      set_temp@temp 0041  
                    set_temp@wait 003C                      set_time@wait 003A                       ??_init_clcd 0079  
                        intlevel1 0000                         stringcode 080A                    ??_clear_screen 0077  
                 _power_on_screen 057E                          stringtab 0800                  power_on_screen@i 002F  
